(dp0
Vtest
p1
(lp2
VSes05F_impro04_M009
p3
aVSes05F_impro04_M010
p4
aVSes05F_impro04_M011
p5
aVSes05F_impro04_M012
p6
aVSes05F_impro04_M013
p7
aVSes05F_impro04_M015
p8
aVSes05F_impro04_M016
p9
aVSes05F_impro04_M017
p10
aVSes05F_impro04_M020
p11
aVSes05F_impro04_M022
p12
aVSes05F_impro04_M024
p13
aVSes05F_impro04_M025
p14
aVSes05F_impro04_M026
p15
aVSes05F_impro04_M027
p16
aVSes05F_impro04_M028
p17
aVSes05F_impro04_M029
p18
aVSes05F_impro04_M030
p19
aVSes05F_impro04_M031
p20
aVSes05F_impro04_M032
p21
aVSes05F_impro04_M033
p22
aVSes05F_impro04_M034
p23
aVSes05F_impro04_M035
p24
aVSes05F_impro04_M036
p25
aVSes05F_impro04_M037
p26
aVSes05F_impro04_M038
p27
aVSes05F_impro04_M039
p28
aVSes05F_impro04_M040
p29
aVSes05F_impro04_M041
p30
aVSes05F_impro04_M042
p31
aVSes05F_impro04_M043
p32
aVSes05F_impro05_F000
p33
aVSes05F_impro05_F001
p34
aVSes05F_impro05_F002
p35
aVSes05F_impro05_F004
p36
aVSes05F_impro05_F005
p37
aVSes05F_impro05_F006
p38
aVSes05F_impro05_F007
p39
aVSes05F_impro05_F010
p40
aVSes05F_impro05_F018
p41
aVSes05F_impro05_F019
p42
aVSes05F_impro05_F020
p43
aVSes05F_impro05_F021
p44
aVSes05F_impro05_F022
p45
aVSes05F_impro05_F023
p46
aVSes05F_impro05_F024
p47
aVSes05F_impro05_F031
p48
aVSes05F_impro05_F033
p49
aVSes05F_impro05_F034
p50
aVSes05F_impro05_F041
p51
aVSes05F_impro05_F042
p52
aVSes05F_impro05_M000
p53
aVSes05F_impro05_M001
p54
aVSes05F_impro05_M002
p55
aVSes05F_impro05_M003
p56
aVSes05F_impro05_M004
p57
aVSes05F_impro05_M005
p58
aVSes05F_impro05_M006
p59
aVSes05F_impro05_M007
p60
aVSes05F_impro05_M008
p61
aVSes05F_impro05_M009
p62
aVSes05F_impro05_M010
p63
aVSes05F_impro05_M012
p64
aVSes05F_impro05_M014
p65
aVSes05F_impro05_M015
p66
aVSes05F_impro05_M016
p67
aVSes05F_impro05_M017
p68
aVSes05F_impro05_M018
p69
aVSes05F_impro05_M019
p70
aVSes05F_impro05_M022
p71
aVSes05F_impro05_M023
p72
aVSes05F_impro05_M025
p73
aVSes05F_impro05_M030
p74
aVSes05F_impro05_M031
p75
aVSes05F_impro05_M032
p76
aVSes05F_impro05_M033
p77
aVSes05F_impro05_M034
p78
aVSes05F_impro05_M036
p79
aVSes05F_impro05_M037
p80
aVSes05F_impro05_M039
p81
aVSes05F_impro05_M040
p82
aVSes05F_impro05_M041
p83
aVSes05F_impro05_M048
p84
aVSes05F_impro05_M050
p85
aVSes05F_impro05_M051
p86
aVSes05F_impro05_M052
p87
aVSes05F_impro05_M053
p88
aVSes05F_impro06_F000
p89
aVSes05F_impro06_F001
p90
aVSes05F_impro06_F002
p91
aVSes05F_impro06_F003
p92
aVSes05F_impro06_F004
p93
aVSes05F_impro06_F005
p94
aVSes05F_impro06_F006
p95
aVSes05F_impro06_F007
p96
aVSes05F_impro06_F008
p97
aVSes05F_impro06_F009
p98
aVSes05F_impro06_F010
p99
aVSes05F_impro06_F011
p100
aVSes05F_impro06_F012
p101
aVSes05F_impro06_F013
p102
aVSes05F_impro06_F014
p103
aVSes05F_impro06_F015
p104
aVSes05F_impro06_F016
p105
aVSes05F_impro06_F017
p106
aVSes05F_impro06_F018
p107
aVSes05F_impro06_F019
p108
aVSes05F_impro06_F020
p109
aVSes05F_impro06_F021
p110
aVSes05F_impro06_F022
p111
aVSes05F_impro06_F023
p112
aVSes05F_impro06_F024
p113
aVSes05F_impro06_F025
p114
aVSes05F_impro06_F026
p115
aVSes05F_impro06_F027
p116
aVSes05F_impro06_F029
p117
aVSes05F_impro06_M001
p118
aVSes05F_impro06_M002
p119
aVSes05F_impro06_M003
p120
aVSes05F_impro06_M004
p121
aVSes05F_impro06_M005
p122
aVSes05F_impro06_M006
p123
aVSes05F_impro06_M007
p124
aVSes05F_impro06_M008
p125
aVSes05F_impro06_M009
p126
aVSes05F_impro06_M010
p127
aVSes05F_impro06_M011
p128
aVSes05F_impro06_M012
p129
aVSes05F_impro06_M013
p130
aVSes05F_impro06_M014
p131
aVSes05F_impro06_M017
p132
aVSes05F_impro06_M018
p133
aVSes05F_impro06_M019
p134
aVSes05F_impro06_M020
p135
aVSes05F_impro06_M021
p136
aVSes05F_impro06_M022
p137
aVSes05F_impro06_M023
p138
aVSes05F_impro06_M024
p139
aVSes05F_impro06_M025
p140
aVSes05F_impro07_F000
p141
aVSes05F_impro07_F001
p142
aVSes05F_impro07_F002
p143
aVSes05F_impro07_F003
p144
aVSes05F_impro07_F004
p145
aVSes05F_impro07_F005
p146
aVSes05F_impro07_F007
p147
aVSes05F_impro07_F008
p148
aVSes05F_impro07_F011
p149
aVSes05F_impro07_F012
p150
aVSes05F_impro07_F013
p151
aVSes05F_impro07_F014
p152
aVSes05F_impro07_F015
p153
aVSes05F_impro07_F016
p154
aVSes05F_impro07_F017
p155
aVSes05F_impro07_F021
p156
aVSes05F_impro07_F023
p157
aVSes05F_impro07_F024
p158
aVSes05F_impro07_F025
p159
aVSes05F_impro07_F026
p160
aVSes05F_impro07_F027
p161
aVSes05F_impro07_F028
p162
aVSes05F_impro07_F029
p163
aVSes05F_impro07_F030
p164
aVSes05F_impro07_F031
p165
aVSes05F_impro07_F032
p166
aVSes05F_impro07_F033
p167
aVSes05F_impro07_F034
p168
aVSes05F_impro07_F035
p169
aVSes05F_impro07_F036
p170
aVSes05F_impro07_F037
p171
aVSes05F_impro07_F038
p172
aVSes05F_impro07_F039
p173
aVSes05F_impro07_M000
p174
aVSes05F_impro07_M001
p175
aVSes05F_impro07_M002
p176
aVSes05F_impro07_M003
p177
aVSes05F_impro07_M004
p178
aVSes05F_impro07_M005
p179
aVSes05F_impro07_M006
p180
aVSes05F_impro07_M008
p181
aVSes05F_impro07_M009
p182
aVSes05F_impro07_M011
p183
aVSes05F_impro07_M012
p184
aVSes05F_impro07_M013
p185
aVSes05F_impro07_M014
p186
aVSes05F_impro07_M015
p187
aVSes05F_impro07_M016
p188
aVSes05F_impro07_M017
p189
aVSes05F_impro07_M018
p190
aVSes05F_impro07_M019
p191
aVSes05F_impro07_M020
p192
aVSes05F_impro07_M021
p193
aVSes05F_impro07_M024
p194
aVSes05F_impro07_M025
p195
aVSes05F_impro07_M026
p196
aVSes05F_impro07_M027
p197
aVSes05F_impro07_M029
p198
aVSes05F_impro07_M030
p199
aVSes05F_impro07_M031
p200
aVSes05F_impro07_M032
p201
aVSes05F_impro07_M033
p202
aVSes05F_impro07_M034
p203
aVSes05F_impro07_M035
p204
aVSes05F_impro07_M036
p205
aVSes05F_impro08_F000
p206
aVSes05F_impro08_F001
p207
aVSes05F_impro08_F002
p208
aVSes05F_impro08_F003
p209
aVSes05F_impro08_F004
p210
aVSes05F_impro08_F005
p211
aVSes05F_impro08_F007
p212
aVSes05F_impro08_F008
p213
aVSes05F_impro08_F009
p214
aVSes05F_impro08_F010
p215
aVSes05F_impro08_F011
p216
aVSes05F_impro08_F012
p217
aVSes05F_impro08_F014
p218
aVSes05F_impro08_F015
p219
aVSes05F_impro08_F016
p220
aVSes05F_impro08_F017
p221
aVSes05F_impro08_F018
p222
aVSes05F_impro08_F019
p223
aVSes05F_impro08_F020
p224
aVSes05F_impro08_F021
p225
aVSes05F_impro08_F022
p226
aVSes05F_impro08_F023
p227
aVSes05F_impro08_F024
p228
aVSes05F_impro08_F025
p229
aVSes05F_impro08_F026
p230
aVSes05F_impro08_F027
p231
aVSes05F_impro08_F028
p232
aVSes05F_impro08_F029
p233
aVSes05F_impro08_F030
p234
aVSes05F_impro08_F032
p235
aVSes05F_impro08_F033
p236
aVSes05F_impro08_M004
p237
aVSes05F_impro08_M005
p238
aVSes05F_impro08_M007
p239
aVSes05F_impro08_M013
p240
aVSes05F_impro08_M016
p241
aVSes05F_impro08_M018
p242
aVSes05F_impro08_M019
p243
aVSes05F_impro08_M020
p244
aVSes05F_impro08_M022
p245
aVSes05F_impro08_M027
p246
aVSes05F_script01_1_F000
p247
aVSes05F_script01_1_F004
p248
aVSes05F_script01_1_F005
p249
aVSes05F_script01_1_F006
p250
aVSes05F_script01_1_F007
p251
aVSes05F_script01_1_F008
p252
aVSes05F_script01_1_F017
p253
aVSes05F_script01_1_F024
p254
aVSes05F_script01_1_F025
p255
aVSes05F_script01_1_F026
p256
aVSes05F_script01_1_F027
p257
aVSes05F_script01_1_F028
p258
aVSes05F_script01_1_F031
p259
aVSes05F_script01_1_F033
p260
aVSes05F_script01_1_F034
p261
aVSes05F_script01_1_F038
p262
aVSes05F_script01_1_M000
p263
aVSes05F_script01_1_M001
p264
aVSes05F_script01_1_M002
p265
aVSes05F_script01_1_M003
p266
aVSes05F_script01_1_M004
p267
aVSes05F_script01_1_M005
p268
aVSes05F_script01_1_M006
p269
aVSes05F_script01_1_M007
p270
aVSes05F_script01_1_M008
p271
aVSes05F_script01_1_M009
p272
aVSes05F_script01_1_M013
p273
aVSes05F_script01_1_M016
p274
aVSes05F_script01_1_M018
p275
aVSes05F_script01_1_M025
p276
aVSes05F_script01_1_M035
p277
aVSes05F_script01_2_F001
p278
aVSes05F_script01_2_F006
p279
aVSes05F_script01_2_F010
p280
aVSes05F_script01_2_F011
p281
aVSes05F_script01_2_F012
p282
aVSes05F_script01_2_F014
p283
aVSes05F_script01_2_F016
p284
aVSes05F_script01_2_F017
p285
aVSes05F_script01_2_M000
p286
aVSes05F_script01_2_M001
p287
aVSes05F_script01_2_M002
p288
aVSes05F_script01_2_M016
p289
aVSes05F_script01_2_M017
p290
aVSes05F_script01_3_F006
p291
aVSes05F_script01_3_F008
p292
aVSes05F_script01_3_F020
p293
aVSes05F_script01_3_F021
p294
aVSes05F_script01_3_F022
p295
aVSes05F_script01_3_F023
p296
aVSes05F_script01_3_F024
p297
aVSes05F_script01_3_F025
p298
aVSes05F_script01_3_M004
p299
aVSes05F_script01_3_M006
p300
aVSes05F_script01_3_M009
p301
aVSes05F_script01_3_M010
p302
aVSes05F_script01_3_M016
p303
aVSes05F_script01_3_M017
p304
aVSes05F_script01_3_M021
p305
aVSes05F_script01_3_M023
p306
aVSes05F_script01_3_M024
p307
aVSes05F_script01_3_M025
p308
aVSes05F_script01_3_M026
p309
aVSes05F_script01_3_M027
p310
aVSes05F_script01_3_M028
p311
aVSes05F_script01_3_M029
p312
aVSes05F_script01_3_M030
p313
aVSes05F_script01_3_M031
p314
aVSes05F_script01_3_M032
p315
aVSes05F_script01_3_M033
p316
aVSes05F_script01_3_M034
p317
aVSes05F_script01_3_M035
p318
aVSes05F_script01_3_M036
p319
aVSes05F_script01_3_M037
p320
aVSes05F_script01_3_M039
p321
aVSes05F_script02_1_F000
p322
aVSes05F_script02_1_F001
p323
aVSes05F_script02_1_F005
p324
aVSes05F_script02_1_F007
p325
aVSes05F_script02_1_F011
p326
aVSes05F_script02_1_F012
p327
aVSes05F_script02_1_F015
p328
aVSes05F_script02_1_F016
p329
aVSes05F_script02_1_M000
p330
aVSes05F_script02_1_M001
p331
aVSes05F_script02_1_M002
p332
aVSes05F_script02_1_M003
p333
aVSes05F_script02_1_M009
p334
aVSes05F_script02_1_M010
p335
aVSes05F_script02_1_M011
p336
aVSes05F_script02_1_M012
p337
aVSes05F_script02_1_M014
p338
aVSes05F_script02_1_M018
p339
aVSes05F_script02_1_M019
p340
aVSes05F_script02_1_M020
p341
aVSes05F_script02_1_M021
p342
aVSes05F_script02_1_M023
p343
aVSes05F_script02_1_M024
p344
aVSes05F_script02_1_M029
p345
aVSes05F_script02_1_M030
p346
aVSes05F_script02_1_M031
p347
aVSes05F_script02_1_M032
p348
aVSes05F_script02_1_M033
p349
aVSes05F_script02_1_M034
p350
aVSes05F_script02_2_F005
p351
aVSes05F_script02_2_F013
p352
aVSes05F_script02_2_F014
p353
aVSes05F_script02_2_F016
p354
aVSes05F_script02_2_F017
p355
aVSes05F_script02_2_F018
p356
aVSes05F_script02_2_F019
p357
aVSes05F_script02_2_F025
p358
aVSes05F_script02_2_F026
p359
aVSes05F_script02_2_F027
p360
aVSes05F_script02_2_F028
p361
aVSes05F_script02_2_F029
p362
aVSes05F_script02_2_F030
p363
aVSes05F_script02_2_F032
p364
aVSes05F_script02_2_M000
p365
aVSes05F_script02_2_M002
p366
aVSes05F_script02_2_M003
p367
aVSes05F_script02_2_M005
p368
aVSes05F_script02_2_M010
p369
aVSes05F_script02_2_M016
p370
aVSes05F_script02_2_M018
p371
aVSes05F_script02_2_M019
p372
aVSes05F_script02_2_M020
p373
aVSes05F_script02_2_M025
p374
aVSes05F_script02_2_M031
p375
aVSes05F_script02_2_M032
p376
aVSes05F_script02_2_M033
p377
aVSes05F_script03_1_F005
p378
aVSes05F_script03_1_F006
p379
aVSes05F_script03_1_F007
p380
aVSes05F_script03_1_F010
p381
aVSes05F_script03_1_F011
p382
aVSes05F_script03_1_F013
p383
aVSes05F_script03_1_F015
p384
aVSes05F_script03_1_F019
p385
aVSes05F_script03_1_F025
p386
aVSes05F_script03_1_F030
p387
aVSes05F_script03_1_F033
p388
aVSes05F_script03_1_M000
p389
aVSes05F_script03_1_M001
p390
aVSes05F_script03_1_M005
p391
aVSes05F_script03_1_M007
p392
aVSes05F_script03_1_M011
p393
aVSes05F_script03_1_M013
p394
aVSes05F_script03_1_M014
p395
aVSes05F_script03_1_M015
p396
aVSes05F_script03_1_M016
p397
aVSes05F_script03_1_M017
p398
aVSes05F_script03_1_M018
p399
aVSes05F_script03_1_M019
p400
aVSes05F_script03_1_M020
p401
aVSes05F_script03_1_M021
p402
aVSes05F_script03_1_M022
p403
aVSes05F_script03_1_M024
p404
aVSes05F_script03_1_M025
p405
aVSes05F_script03_1_M026
p406
aVSes05F_script03_1_M027
p407
aVSes05F_script03_1_M028
p408
aVSes05F_script03_1_M029
p409
aVSes05F_script03_1_M030
p410
aVSes05F_script03_1_M031
p411
aVSes05F_script03_1_M032
p412
aVSes05F_script03_1_M033
p413
aVSes05F_script03_2_F000
p414
aVSes05F_script03_2_F001
p415
aVSes05F_script03_2_F003
p416
aVSes05F_script03_2_F004
p417
aVSes05F_script03_2_F005
p418
aVSes05F_script03_2_F006
p419
aVSes05F_script03_2_F010
p420
aVSes05F_script03_2_F011
p421
aVSes05F_script03_2_F012
p422
aVSes05F_script03_2_F014
p423
aVSes05F_script03_2_F018
p424
aVSes05F_script03_2_F019
p425
aVSes05F_script03_2_F020
p426
aVSes05F_script03_2_F021
p427
aVSes05F_script03_2_F022
p428
aVSes05F_script03_2_F023
p429
aVSes05F_script03_2_F024
p430
aVSes05F_script03_2_F027
p431
aVSes05F_script03_2_F029
p432
aVSes05F_script03_2_F030
p433
aVSes05F_script03_2_F031
p434
aVSes05F_script03_2_F032
p435
aVSes05F_script03_2_F033
p436
aVSes05F_script03_2_F034
p437
aVSes05F_script03_2_F035
p438
aVSes05F_script03_2_F036
p439
aVSes05F_script03_2_F037
p440
aVSes05F_script03_2_F038
p441
aVSes05F_script03_2_F039
p442
aVSes05F_script03_2_F040
p443
aVSes05F_script03_2_F041
p444
aVSes05F_script03_2_M004
p445
aVSes05F_script03_2_M005
p446
aVSes05F_script03_2_M008
p447
aVSes05F_script03_2_M009
p448
aVSes05F_script03_2_M010
p449
aVSes05F_script03_2_M013
p450
aVSes05F_script03_2_M014
p451
aVSes05F_script03_2_M016
p452
aVSes05F_script03_2_M019
p453
aVSes05F_script03_2_M022
p454
aVSes05F_script03_2_M024
p455
aVSes05F_script03_2_M025
p456
aVSes05F_script03_2_M026
p457
aVSes05F_script03_2_M037
p458
aVSes05F_script03_2_M038
p459
aVSes05F_script03_2_M039
p460
aVSes05F_script03_2_M040
p461
aVSes05F_script03_2_M041
p462
aVSes05F_script03_2_M042
p463
aVSes05F_script03_2_M043
p464
aVSes05M_impro01_F000
p465
aVSes05M_impro01_F001
p466
aVSes05M_impro01_F002
p467
aVSes05M_impro01_F003
p468
aVSes05M_impro01_F004
p469
aVSes05M_impro01_F006
p470
aVSes05M_impro01_F009
p471
aVSes05M_impro01_F012
p472
aVSes05M_impro01_F021
p473
aVSes05M_impro01_F023
p474
aVSes05M_impro01_M005
p475
aVSes05M_impro01_M015
p476
aVSes05M_impro02_F012
p477
aVSes05M_impro02_F013
p478
aVSes05M_impro02_F020
p479
aVSes05M_impro02_F021
p480
aVSes05M_impro02_F023
p481
aVSes05M_impro02_F024
p482
aVSes05M_impro02_M000
p483
aVSes05M_impro02_M001
p484
aVSes05M_impro02_M007
p485
aVSes05M_impro02_M010
p486
aVSes05M_impro02_M011
p487
aVSes05M_impro02_M012
p488
aVSes05M_impro02_M013
p489
aVSes05M_impro02_M018
p490
aVSes05M_impro02_M019
p491
aVSes05M_impro02_M021
p492
aVSes05M_impro02_M022
p493
aVSes05M_impro02_M023
p494
aVSes05M_impro02_M024
p495
aVSes05M_impro02_M025
p496
aVSes05M_impro02_M027
p497
aVSes05M_impro02_M028
p498
aVSes05M_impro02_M029
p499
aVSes05M_impro02_M030
p500
aVSes05M_impro03_F000
p501
aVSes05M_impro03_F002
p502
aVSes05M_impro03_F003
p503
aVSes05M_impro03_F004
p504
aVSes05M_impro03_F006
p505
aVSes05M_impro03_F007
p506
aVSes05M_impro03_F014
p507
aVSes05M_impro03_F015
p508
aVSes05M_impro03_F018
p509
aVSes05M_impro03_F019
p510
aVSes05M_impro03_F023
p511
aVSes05M_impro03_F026
p512
aVSes05M_impro03_F027
p513
aVSes05M_impro03_F030
p514
aVSes05M_impro03_M000
p515
aVSes05M_impro03_M001
p516
aVSes05M_impro03_M002
p517
aVSes05M_impro03_M003
p518
aVSes05M_impro03_M019
p519
aVSes05M_impro03_M020
p520
aVSes05M_impro03_M021
p521
aVSes05M_impro03_M029
p522
aVSes05M_impro04_F001
p523
aVSes05M_impro04_F002
p524
aVSes05M_impro04_F003
p525
aVSes05M_impro04_F004
p526
aVSes05M_impro04_F005
p527
aVSes05M_impro04_F006
p528
aVSes05M_impro04_F007
p529
aVSes05M_impro04_F008
p530
aVSes05M_impro04_F009
p531
aVSes05M_impro04_F010
p532
aVSes05M_impro04_F011
p533
aVSes05M_impro04_F012
p534
aVSes05M_impro04_F013
p535
aVSes05M_impro04_F014
p536
aVSes05M_impro04_F015
p537
aVSes05M_impro04_F016
p538
aVSes05M_impro04_F017
p539
aVSes05M_impro04_F018
p540
aVSes05M_impro04_F019
p541
aVSes05M_impro04_F020
p542
aVSes05M_impro04_F021
p543
aVSes05M_impro04_F022
p544
aVSes05M_impro04_F023
p545
aVSes05M_impro04_F024
p546
aVSes05M_impro04_F026
p547
aVSes05M_impro04_F027
p548
aVSes05M_impro04_F028
p549
aVSes05M_impro04_F029
p550
aVSes05M_impro04_F030
p551
aVSes05M_impro04_F031
p552
aVSes05M_impro04_F032
p553
aVSes05M_impro04_F034
p554
aVSes05M_impro04_F035
p555
aVSes05M_impro04_F036
p556
aVSes05M_impro04_F037
p557
aVSes05M_impro04_M008
p558
aVSes05M_impro04_M009
p559
aVSes05M_impro04_M010
p560
aVSes05M_impro04_M019
p561
aVSes05M_impro04_M020
p562
aVSes05M_impro04_M040
p563
aVSes05M_impro04_M041
p564
aVSes05M_impro05_F000
p565
aVSes05M_impro05_F001
p566
aVSes05M_impro05_F002
p567
aVSes05M_impro05_F003
p568
aVSes05M_impro05_F004
p569
aVSes05M_impro05_F005
p570
aVSes05M_impro05_F006
p571
aVSes05M_impro05_F007
p572
aVSes05M_impro05_F008
p573
aVSes05M_impro05_F009
p574
aVSes05M_impro05_F010
p575
aVSes05M_impro05_F011
p576
aVSes05M_impro05_F012
p577
aVSes05M_impro05_F013
p578
aVSes05M_impro05_F014
p579
aVSes05M_impro05_F015
p580
aVSes05M_impro05_F016
p581
aVSes05M_impro05_F017
p582
aVSes05M_impro05_F018
p583
aVSes05M_impro05_F019
p584
aVSes05M_impro05_F020
p585
aVSes05M_impro05_F021
p586
aVSes05M_impro05_M000
p587
aVSes05M_impro05_M001
p588
aVSes05M_impro05_M002
p589
aVSes05M_impro05_M003
p590
aVSes05M_impro05_M004
p591
aVSes05M_impro05_M005
p592
aVSes05M_impro05_M006
p593
aVSes05M_impro05_M007
p594
aVSes05M_impro05_M009
p595
aVSes05M_impro05_M010
p596
aVSes05M_impro05_M022
p597
aVSes05M_impro06_F002
p598
aVSes05M_impro06_F003
p599
aVSes05M_impro06_F004
p600
aVSes05M_impro06_F005
p601
aVSes05M_impro06_F006
p602
aVSes05M_impro06_F007
p603
aVSes05M_impro06_F008
p604
aVSes05M_impro06_F009
p605
aVSes05M_impro06_F010
p606
aVSes05M_impro06_M000
p607
aVSes05M_impro06_M001
p608
aVSes05M_impro06_M002
p609
aVSes05M_impro06_M003
p610
aVSes05M_impro06_M004
p611
aVSes05M_impro06_M005
p612
aVSes05M_impro06_M006
p613
aVSes05M_impro06_M007
p614
aVSes05M_impro06_M008
p615
aVSes05M_impro06_M009
p616
aVSes05M_impro06_M010
p617
aVSes05M_impro06_M011
p618
aVSes05M_impro06_M012
p619
aVSes05M_impro06_M013
p620
aVSes05M_impro06_M014
p621
aVSes05M_impro06_M017
p622
aVSes05M_impro06_M018
p623
aVSes05M_impro06_M019
p624
aVSes05M_impro06_M020
p625
aVSes05M_impro07_F000
p626
aVSes05M_impro07_F001
p627
aVSes05M_impro07_F003
p628
aVSes05M_impro07_F009
p629
aVSes05M_impro07_F010
p630
aVSes05M_impro07_F011
p631
aVSes05M_impro07_F012
p632
aVSes05M_impro07_F015
p633
aVSes05M_impro07_F016
p634
aVSes05M_impro07_F017
p635
aVSes05M_impro07_F018
p636
aVSes05M_impro07_F019
p637
aVSes05M_impro07_F020
p638
aVSes05M_impro07_F021
p639
aVSes05M_impro07_F022
p640
aVSes05M_impro07_F024
p641
aVSes05M_impro07_F025
p642
aVSes05M_impro07_F026
p643
aVSes05M_impro07_F027
p644
aVSes05M_impro07_F028
p645
aVSes05M_impro07_F029
p646
aVSes05M_impro07_F030
p647
aVSes05M_impro07_F032
p648
aVSes05M_impro07_F033
p649
aVSes05M_impro07_F037
p650
aVSes05M_impro07_F038
p651
aVSes05M_impro07_F040
p652
aVSes05M_impro07_F041
p653
aVSes05M_impro07_F042
p654
aVSes05M_impro07_F044
p655
aVSes05M_impro07_M000
p656
aVSes05M_impro07_M001
p657
aVSes05M_impro07_M002
p658
aVSes05M_impro07_M003
p659
aVSes05M_impro07_M004
p660
aVSes05M_impro07_M005
p661
aVSes05M_impro07_M006
p662
aVSes05M_impro07_M007
p663
aVSes05M_impro07_M011
p664
aVSes05M_impro07_M013
p665
aVSes05M_impro07_M014
p666
aVSes05M_impro07_M016
p667
aVSes05M_impro07_M017
p668
aVSes05M_impro07_M018
p669
aVSes05M_impro07_M019
p670
aVSes05M_impro07_M020
p671
aVSes05M_impro07_M021
p672
aVSes05M_impro07_M022
p673
aVSes05M_impro07_M023
p674
aVSes05M_impro07_M024
p675
aVSes05M_impro07_M025
p676
aVSes05M_impro07_M026
p677
aVSes05M_impro07_M028
p678
aVSes05M_impro07_M029
p679
aVSes05M_impro07_M030
p680
aVSes05M_impro07_M031
p681
aVSes05M_impro07_M032
p682
aVSes05M_impro07_M033
p683
aVSes05M_impro07_M034
p684
aVSes05M_impro07_M035
p685
aVSes05M_impro07_M036
p686
aVSes05M_impro07_M037
p687
aVSes05M_impro07_M040
p688
aVSes05M_impro07_M041
p689
aVSes05M_impro07_M042
p690
aVSes05M_impro07_M043
p691
aVSes05M_impro07_M044
p692
aVSes05M_impro07_M045
p693
aVSes05M_impro07_M047
p694
aVSes05M_impro08_F005
p695
aVSes05M_impro08_F006
p696
aVSes05M_impro08_F007
p697
aVSes05M_impro08_F008
p698
aVSes05M_impro08_F009
p699
aVSes05M_impro08_F011
p700
aVSes05M_impro08_F012
p701
aVSes05M_impro08_F013
p702
aVSes05M_impro08_F014
p703
aVSes05M_impro08_F015
p704
aVSes05M_impro08_F016
p705
aVSes05M_impro08_F017
p706
aVSes05M_impro08_F018
p707
aVSes05M_impro08_F019
p708
aVSes05M_impro08_M000
p709
aVSes05M_impro08_M001
p710
aVSes05M_impro08_M002
p711
aVSes05M_impro08_M003
p712
aVSes05M_impro08_M004
p713
aVSes05M_impro08_M005
p714
aVSes05M_impro08_M006
p715
aVSes05M_impro08_M007
p716
aVSes05M_impro08_M008
p717
aVSes05M_impro08_M009
p718
aVSes05M_impro08_M010
p719
aVSes05M_impro08_M011
p720
aVSes05M_impro08_M012
p721
aVSes05M_impro08_M013
p722
aVSes05M_impro08_M014
p723
aVSes05M_impro08_M015
p724
aVSes05M_impro08_M016
p725
aVSes05M_impro08_M017
p726
aVSes05M_impro08_M018
p727
aVSes05M_impro08_M019
p728
aVSes05M_impro08_M020
p729
aVSes05M_impro08_M021
p730
aVSes05M_impro08_M022
p731
aVSes05M_impro08_M023
p732
aVSes05M_impro08_M024
p733
aVSes05M_impro08_M025
p734
aVSes05M_impro08_M027
p735
aVSes05M_script01_1_F000
p736
aVSes05M_script01_1_F001
p737
aVSes05M_script01_1_F004
p738
aVSes05M_script01_1_F005
p739
aVSes05M_script01_1_F014
p740
aVSes05M_script01_1_F018
p741
aVSes05M_script01_1_F021
p742
aVSes05M_script01_1_F022
p743
aVSes05M_script01_1_F023
p744
aVSes05M_script01_1_F024
p745
aVSes05M_script01_1_F025
p746
aVSes05M_script01_1_F026
p747
aVSes05M_script01_1_F032
p748
aVSes05M_script01_1_F035
p749
aVSes05M_script01_1_F036
p750
aVSes05M_script01_1_M004
p751
aVSes05M_script01_1_M011
p752
aVSes05M_script01_1_M013
p753
aVSes05M_script01_1_M016
p754
aVSes05M_script01_1_M017
p755
aVSes05M_script01_1_M020
p756
aVSes05M_script01_1_M021
p757
aVSes05M_script01_1_M022
p758
aVSes05M_script01_1_M023
p759
aVSes05M_script01_1_M025
p760
aVSes05M_script01_1_M028
p761
aVSes05M_script01_1_M032
p762
aVSes05M_script01_1_M033
p763
aVSes05M_script01_1_M034
p764
aVSes05M_script01_1_M035
p765
aVSes05M_script01_1_M036
p766
aVSes05M_script01_1_M037
p767
aVSes05M_script01_1b_F000
p768
aVSes05M_script01_1b_F022
p769
aVSes05M_script01_1b_F023
p770
aVSes05M_script01_1b_F024
p771
aVSes05M_script01_1b_F026
p772
aVSes05M_script01_1b_F028
p773
aVSes05M_script01_1b_F031
p774
aVSes05M_script01_1b_F033
p775
aVSes05M_script01_1b_F034
p776
aVSes05M_script01_1b_M001
p777
aVSes05M_script01_1b_M002
p778
aVSes05M_script01_1b_M003
p779
aVSes05M_script01_1b_M004
p780
aVSes05M_script01_1b_M005
p781
aVSes05M_script01_1b_M019
p782
aVSes05M_script01_1b_M020
p783
aVSes05M_script01_1b_M022
p784
aVSes05M_script01_1b_M031
p785
aVSes05M_script01_1b_M032
p786
aVSes05M_script01_1b_M033
p787
aVSes05M_script01_1b_M035
p788
aVSes05M_script01_1b_M036
p789
aVSes05M_script01_1b_M040
p790
aVSes05M_script01_1b_M041
p791
aVSes05M_script01_2_F002
p792
aVSes05M_script01_2_F004
p793
aVSes05M_script01_2_F005
p794
aVSes05M_script01_2_F015
p795
aVSes05M_script01_2_F017
p796
aVSes05M_script01_2_M000
p797
aVSes05M_script01_2_M001
p798
aVSes05M_script01_2_M003
p799
aVSes05M_script01_2_M015
p800
aVSes05M_script01_2_M016
p801
aVSes05M_script01_3_F000
p802
aVSes05M_script01_3_F003
p803
aVSes05M_script01_3_F006
p804
aVSes05M_script01_3_F007
p805
aVSes05M_script01_3_F010
p806
aVSes05M_script01_3_F013
p807
aVSes05M_script01_3_F015
p808
aVSes05M_script01_3_F016
p809
aVSes05M_script01_3_F019
p810
aVSes05M_script01_3_F020
p811
aVSes05M_script01_3_F021
p812
aVSes05M_script01_3_F022
p813
aVSes05M_script01_3_F023
p814
aVSes05M_script01_3_F024
p815
aVSes05M_script01_3_F025
p816
aVSes05M_script01_3_M001
p817
aVSes05M_script01_3_M003
p818
aVSes05M_script01_3_M010
p819
aVSes05M_script01_3_M016
p820
aVSes05M_script01_3_M017
p821
aVSes05M_script01_3_M019
p822
aVSes05M_script01_3_M020
p823
aVSes05M_script01_3_M021
p824
aVSes05M_script01_3_M022
p825
aVSes05M_script01_3_M023
p826
aVSes05M_script01_3_M025
p827
aVSes05M_script01_3_M026
p828
aVSes05M_script01_3_M027
p829
aVSes05M_script01_3_M029
p830
aVSes05M_script01_3_M030
p831
aVSes05M_script01_3_M033
p832
aVSes05M_script01_3_M036
p833
aVSes05M_script01_3_M039
p834
aVSes05M_script01_3_M040
p835
aVSes05M_script01_3_M041
p836
aVSes05M_script02_1_F000
p837
aVSes05M_script02_1_F001
p838
aVSes05M_script02_1_F016
p839
aVSes05M_script02_1_M000
p840
aVSes05M_script02_1_M001
p841
aVSes05M_script02_1_M002
p842
aVSes05M_script02_1_M003
p843
aVSes05M_script02_1_M005
p844
aVSes05M_script02_1_M006
p845
aVSes05M_script02_1_M007
p846
aVSes05M_script02_1_M008
p847
aVSes05M_script02_1_M009
p848
aVSes05M_script02_1_M010
p849
aVSes05M_script02_1_M017
p850
aVSes05M_script02_1_M018
p851
aVSes05M_script02_1_M019
p852
aVSes05M_script02_1_M020
p853
aVSes05M_script02_1_M021
p854
aVSes05M_script02_1_M023
p855
aVSes05M_script02_1_M028
p856
aVSes05M_script02_1_M029
p857
aVSes05M_script02_1_M030
p858
aVSes05M_script02_1_M031
p859
aVSes05M_script02_1_M032
p860
aVSes05M_script02_1_M033
p861
aVSes05M_script02_2_F000
p862
aVSes05M_script02_2_F001
p863
aVSes05M_script02_2_F005
p864
aVSes05M_script02_2_F009
p865
aVSes05M_script02_2_F010
p866
aVSes05M_script02_2_F012
p867
aVSes05M_script02_2_F013
p868
aVSes05M_script02_2_F014
p869
aVSes05M_script02_2_F015
p870
aVSes05M_script02_2_F016
p871
aVSes05M_script02_2_F017
p872
aVSes05M_script02_2_F018
p873
aVSes05M_script02_2_F019
p874
aVSes05M_script02_2_F022
p875
aVSes05M_script02_2_F023
p876
aVSes05M_script02_2_F026
p877
aVSes05M_script02_2_F027
p878
aVSes05M_script02_2_F028
p879
aVSes05M_script02_2_F029
p880
aVSes05M_script02_2_F030
p881
aVSes05M_script02_2_F031
p882
aVSes05M_script02_2_F032
p883
aVSes05M_script02_2_M000
p884
aVSes05M_script02_2_M001
p885
aVSes05M_script02_2_M005
p886
aVSes05M_script02_2_M016
p887
aVSes05M_script02_2_M024
p888
aVSes05M_script02_2_M025
p889
aVSes05M_script02_2_M026
p890
aVSes05M_script02_2_M029
p891
aVSes05M_script02_2_M030
p892
aVSes05M_script02_2_M031
p893
aVSes05M_script02_2_M032
p894
aVSes05M_script03_1_F001
p895
aVSes05M_script03_1_F002
p896
aVSes05M_script03_1_F003
p897
aVSes05M_script03_1_F004
p898
aVSes05M_script03_1_F005
p899
aVSes05M_script03_1_F011
p900
aVSes05M_script03_1_F012
p901
aVSes05M_script03_1_F013
p902
aVSes05M_script03_1_F015
p903
aVSes05M_script03_1_F017
p904
aVSes05M_script03_1_F020
p905
aVSes05M_script03_1_F024
p906
aVSes05M_script03_1_F026
p907
aVSes05M_script03_1_F031
p908
aVSes05M_script03_1_M001
p909
aVSes05M_script03_1_M003
p910
aVSes05M_script03_1_M004
p911
aVSes05M_script03_1_M006
p912
aVSes05M_script03_1_M007
p913
aVSes05M_script03_1_M008
p914
aVSes05M_script03_1_M009
p915
aVSes05M_script03_1_M010
p916
aVSes05M_script03_1_M011
p917
aVSes05M_script03_1_M012
p918
aVSes05M_script03_1_M013
p919
aVSes05M_script03_1_M014
p920
aVSes05M_script03_1_M015
p921
aVSes05M_script03_1_M016
p922
aVSes05M_script03_1_M018
p923
aVSes05M_script03_1_M020
p924
aVSes05M_script03_1_M021
p925
aVSes05M_script03_1_M022
p926
aVSes05M_script03_1_M023
p927
aVSes05M_script03_1_M024
p928
aVSes05M_script03_1_M025
p929
aVSes05M_script03_1_M026
p930
aVSes05M_script03_1_M027
p931
aVSes05M_script03_1_M028
p932
aVSes05M_script03_1_M029
p933
aVSes05M_script03_1_M030
p934
aVSes05M_script03_1_M031
p935
aVSes05M_script03_1_M032
p936
aVSes05M_script03_1_M033
p937
aVSes05M_script03_2_F001
p938
aVSes05M_script03_2_F002
p939
aVSes05M_script03_2_F004
p940
aVSes05M_script03_2_F005
p941
aVSes05M_script03_2_F006
p942
aVSes05M_script03_2_F009
p943
aVSes05M_script03_2_F012
p944
aVSes05M_script03_2_F015
p945
aVSes05M_script03_2_F017
p946
aVSes05M_script03_2_F018
p947
aVSes05M_script03_2_F023
p948
aVSes05M_script03_2_F026
p949
aVSes05M_script03_2_F028
p950
aVSes05M_script03_2_F034
p951
aVSes05M_script03_2_F035
p952
aVSes05M_script03_2_F036
p953
aVSes05M_script03_2_F037
p954
aVSes05M_script03_2_F038
p955
aVSes05M_script03_2_F039
p956
aVSes05M_script03_2_F040
p957
aVSes05M_script03_2_F041
p958
aVSes05M_script03_2_F042
p959
aVSes05M_script03_2_F043
p960
aVSes05M_script03_2_F044
p961
aVSes05M_script03_2_M008
p962
aVSes05M_script03_2_M009
p963
aVSes05M_script03_2_M010
p964
aVSes05M_script03_2_M011
p965
aVSes05M_script03_2_M015
p966
aVSes05M_script03_2_M020
p967
aVSes05M_script03_2_M023
p968
aVSes05M_script03_2_M024
p969
aVSes05M_script03_2_M025
p970
aVSes05M_script03_2_M026
p971
aVSes05M_script03_2_M027
p972
aVSes05M_script03_2_M028
p973
aVSes05M_script03_2_M029
p974
aVSes05M_script03_2_M030
p975
aVSes05M_script03_2_M031
p976
aVSes05M_script03_2_M032
p977
aVSes05M_script03_2_M033
p978
aVSes05M_script03_2_M034
p979
aVSes05M_script03_2_M035
p980
aVSes05M_script03_2_M036
p981
aVSes05M_script03_2_M037
p982
aVSes05M_script03_2_M038
p983
aVSes05M_script03_2_M039
p984
aVSes05M_script03_2_M040
p985
aVSes05M_script03_2_M041
p986
aVSes05M_script03_2_M042
p987
aVSes05M_script03_2_M043
p988
aVSes05M_script03_2_M044
p989
aVSes05M_script03_2_M045
p990
asVtrain
p991
(lp992
VSes01F_impro01_F000
p993
aVSes01F_impro01_F001
p994
aVSes01F_impro01_F002
p995
aVSes01F_impro01_F005
p996
aVSes01F_impro01_F012
p997
aVSes01F_impro01_F014
p998
aVSes01F_impro01_M011
p999
aVSes01F_impro01_M013
p1000
aVSes01F_impro02_F000
p1001
aVSes01F_impro02_F001
p1002
aVSes01F_impro02_F002
p1003
aVSes01F_impro02_F003
p1004
aVSes01F_impro02_F004
p1005
aVSes01F_impro02_F005
p1006
aVSes01F_impro02_F006
p1007
aVSes01F_impro02_F008
p1008
aVSes01F_impro02_F010
p1009
aVSes01F_impro02_F012
p1010
aVSes01F_impro02_F013
p1011
aVSes01F_impro02_F014
p1012
aVSes01F_impro02_F015
p1013
aVSes01F_impro02_F016
p1014
aVSes01F_impro02_F017
p1015
aVSes01F_impro02_F018
p1016
aVSes01F_impro02_F019
p1017
aVSes01F_impro02_F020
p1018
aVSes01F_impro02_M001
p1019
aVSes01F_impro02_M005
p1020
aVSes01F_impro02_M009
p1021
aVSes01F_impro02_M010
p1022
aVSes01F_impro02_M011
p1023
aVSes01F_impro02_M012
p1024
aVSes01F_impro02_M013
p1025
aVSes01F_impro02_M014
p1026
aVSes01F_impro02_M015
p1027
aVSes01F_impro03_F015
p1028
aVSes01F_impro03_F017
p1029
aVSes01F_impro03_F018
p1030
aVSes01F_impro03_F019
p1031
aVSes01F_impro03_F022
p1032
aVSes01F_impro03_F023
p1033
aVSes01F_impro03_M000
p1034
aVSes01F_impro03_M001
p1035
aVSes01F_impro03_M003
p1036
aVSes01F_impro03_M006
p1037
aVSes01F_impro03_M008
p1038
aVSes01F_impro03_M009
p1039
aVSes01F_impro03_M011
p1040
aVSes01F_impro03_M016
p1041
aVSes01F_impro03_M019
p1042
aVSes01F_impro03_M020
p1043
aVSes01F_impro03_M021
p1044
aVSes01F_impro03_M022
p1045
aVSes01F_impro03_M024
p1046
aVSes01F_impro04_F000
p1047
aVSes01F_impro04_F001
p1048
aVSes01F_impro04_F005
p1049
aVSes01F_impro04_F006
p1050
aVSes01F_impro04_F009
p1051
aVSes01F_impro04_F013
p1052
aVSes01F_impro04_F014
p1053
aVSes01F_impro04_F028
p1054
aVSes01F_impro04_F029
p1055
aVSes01F_impro04_F030
p1056
aVSes01F_impro04_F031
p1057
aVSes01F_impro04_F032
p1058
aVSes01F_impro04_F033
p1059
aVSes01F_impro04_M000
p1060
aVSes01F_impro04_M001
p1061
aVSes01F_impro04_M002
p1062
aVSes01F_impro04_M003
p1063
aVSes01F_impro04_M004
p1064
aVSes01F_impro04_M005
p1065
aVSes01F_impro04_M006
p1066
aVSes01F_impro04_M007
p1067
aVSes01F_impro04_M008
p1068
aVSes01F_impro04_M009
p1069
aVSes01F_impro04_M010
p1070
aVSes01F_impro04_M011
p1071
aVSes01F_impro04_M012
p1072
aVSes01F_impro04_M013
p1073
aVSes01F_impro04_M014
p1074
aVSes01F_impro04_M015
p1075
aVSes01F_impro04_M016
p1076
aVSes01F_impro04_M017
p1077
aVSes01F_impro04_M018
p1078
aVSes01F_impro04_M019
p1079
aVSes01F_impro04_M020
p1080
aVSes01F_impro04_M021
p1081
aVSes01F_impro04_M022
p1082
aVSes01F_impro04_M023
p1083
aVSes01F_impro04_M024
p1084
aVSes01F_impro04_M025
p1085
aVSes01F_impro04_M026
p1086
aVSes01F_impro04_M027
p1087
aVSes01F_impro04_M028
p1088
aVSes01F_impro04_M031
p1089
aVSes01F_impro04_M032
p1090
aVSes01F_impro05_F008
p1091
aVSes01F_impro05_F009
p1092
aVSes01F_impro05_F011
p1093
aVSes01F_impro05_F012
p1094
aVSes01F_impro05_F014
p1095
aVSes01F_impro05_F015
p1096
aVSes01F_impro05_F016
p1097
aVSes01F_impro05_F017
p1098
aVSes01F_impro05_F018
p1099
aVSes01F_impro05_F019
p1100
aVSes01F_impro05_F020
p1101
aVSes01F_impro05_F021
p1102
aVSes01F_impro05_F022
p1103
aVSes01F_impro05_F023
p1104
aVSes01F_impro05_F024
p1105
aVSes01F_impro05_F025
p1106
aVSes01F_impro05_F026
p1107
aVSes01F_impro05_F028
p1108
aVSes01F_impro05_F029
p1109
aVSes01F_impro05_F030
p1110
aVSes01F_impro05_M000
p1111
aVSes01F_impro05_M003
p1112
aVSes01F_impro05_M004
p1113
aVSes01F_impro05_M005
p1114
aVSes01F_impro05_M006
p1115
aVSes01F_impro05_M007
p1116
aVSes01F_impro05_M008
p1117
aVSes01F_impro05_M009
p1118
aVSes01F_impro05_M010
p1119
aVSes01F_impro05_M011
p1120
aVSes01F_impro05_M012
p1121
aVSes01F_impro05_M013
p1122
aVSes01F_impro05_M014
p1123
aVSes01F_impro05_M015
p1124
aVSes01F_impro05_M016
p1125
aVSes01F_impro05_M017
p1126
aVSes01F_impro05_M019
p1127
aVSes01F_impro05_M020
p1128
aVSes01F_impro05_M022
p1129
aVSes01F_impro05_M023
p1130
aVSes01F_impro05_M024
p1131
aVSes01F_impro05_M025
p1132
aVSes01F_impro05_M026
p1133
aVSes01F_impro05_M027
p1134
aVSes01F_impro05_M028
p1135
aVSes01F_impro05_M029
p1136
aVSes01F_impro05_M030
p1137
aVSes01F_impro05_M031
p1138
aVSes01F_impro05_M034
p1139
aVSes01F_impro05_M035
p1140
aVSes01F_impro06_F002
p1141
aVSes01F_impro06_F003
p1142
aVSes01F_impro06_F004
p1143
aVSes01F_impro06_F005
p1144
aVSes01F_impro06_F006
p1145
aVSes01F_impro06_F007
p1146
aVSes01F_impro06_F008
p1147
aVSes01F_impro06_F009
p1148
aVSes01F_impro06_F010
p1149
aVSes01F_impro06_F011
p1150
aVSes01F_impro06_F012
p1151
aVSes01F_impro06_F013
p1152
aVSes01F_impro06_F014
p1153
aVSes01F_impro06_F015
p1154
aVSes01F_impro06_F016
p1155
aVSes01F_impro06_F018
p1156
aVSes01F_impro06_F019
p1157
aVSes01F_impro06_F020
p1158
aVSes01F_impro06_F021
p1159
aVSes01F_impro06_F022
p1160
aVSes01F_impro06_F023
p1161
aVSes01F_impro06_F024
p1162
aVSes01F_impro06_F025
p1163
aVSes01F_impro06_F026
p1164
aVSes01F_impro06_F027
p1165
aVSes01F_impro06_F028
p1166
aVSes01F_impro06_M000
p1167
aVSes01F_impro06_M001
p1168
aVSes01F_impro06_M002
p1169
aVSes01F_impro06_M003
p1170
aVSes01F_impro06_M004
p1171
aVSes01F_impro06_M005
p1172
aVSes01F_impro06_M006
p1173
aVSes01F_impro06_M007
p1174
aVSes01F_impro06_M008
p1175
aVSes01F_impro06_M009
p1176
aVSes01F_impro06_M010
p1177
aVSes01F_impro06_M011
p1178
aVSes01F_impro06_M012
p1179
aVSes01F_impro06_M013
p1180
aVSes01F_impro06_M014
p1181
aVSes01F_impro06_M015
p1182
aVSes01F_impro06_M016
p1183
aVSes01F_impro07_F000
p1184
aVSes01F_impro07_F002
p1185
aVSes01F_impro07_F003
p1186
aVSes01F_impro07_F004
p1187
aVSes01F_impro07_F005
p1188
aVSes01F_impro07_F009
p1189
aVSes01F_impro07_F010
p1190
aVSes01F_impro07_F012
p1191
aVSes01F_impro07_F013
p1192
aVSes01F_impro07_F016
p1193
aVSes01F_impro07_M000
p1194
aVSes01F_impro07_M001
p1195
aVSes01F_impro07_M002
p1196
aVSes01F_impro07_M003
p1197
aVSes01F_impro07_M004
p1198
aVSes01F_impro07_M005
p1199
aVSes01F_impro07_M006
p1200
aVSes01F_impro07_M007
p1201
aVSes01F_impro07_M008
p1202
aVSes01F_impro07_M009
p1203
aVSes01F_impro07_M012
p1204
aVSes01F_impro07_M013
p1205
aVSes01F_impro07_M014
p1206
aVSes01F_impro07_M015
p1207
aVSes01F_impro07_M017
p1208
aVSes01F_impro07_M018
p1209
aVSes01F_script01_1_F005
p1210
aVSes01F_script01_1_F015
p1211
aVSes01F_script01_1_F034
p1212
aVSes01F_script01_1_F035
p1213
aVSes01F_script01_1_F037
p1214
aVSes01F_script01_1_F038
p1215
aVSes01F_script01_1_F041
p1216
aVSes01F_script01_1_F042
p1217
aVSes01F_script01_1_M000
p1218
aVSes01F_script01_1_M001
p1219
aVSes01F_script01_1_M002
p1220
aVSes01F_script01_1_M003
p1221
aVSes01F_script01_1_M004
p1222
aVSes01F_script01_1_M007
p1223
aVSes01F_script01_1_M010
p1224
aVSes01F_script01_1_M012
p1225
aVSes01F_script01_1_M014
p1226
aVSes01F_script01_1_M015
p1227
aVSes01F_script01_1_M016
p1228
aVSes01F_script01_1_M017
p1229
aVSes01F_script01_1_M019
p1230
aVSes01F_script01_1_M023
p1231
aVSes01F_script01_1_M024
p1232
aVSes01F_script01_1_M025
p1233
aVSes01F_script01_1_M034
p1234
aVSes01F_script01_1_M039
p1235
aVSes01F_script01_1_M040
p1236
aVSes01F_script01_2_F003
p1237
aVSes01F_script01_2_F004
p1238
aVSes01F_script01_2_F005
p1239
aVSes01F_script01_2_F006
p1240
aVSes01F_script01_2_F007
p1241
aVSes01F_script01_2_F008
p1242
aVSes01F_script01_2_F009
p1243
aVSes01F_script01_2_F010
p1244
aVSes01F_script01_2_F011
p1245
aVSes01F_script01_2_F012
p1246
aVSes01F_script01_2_F013
p1247
aVSes01F_script01_2_M001
p1248
aVSes01F_script01_2_M004
p1249
aVSes01F_script01_2_M008
p1250
aVSes01F_script01_2_M017
p1251
aVSes01F_script01_3_F000
p1252
aVSes01F_script01_3_F001
p1253
aVSes01F_script01_3_F002
p1254
aVSes01F_script01_3_F003
p1255
aVSes01F_script01_3_F004
p1256
aVSes01F_script01_3_F005
p1257
aVSes01F_script01_3_F006
p1258
aVSes01F_script01_3_F007
p1259
aVSes01F_script01_3_F008
p1260
aVSes01F_script01_3_F009
p1261
aVSes01F_script01_3_F014
p1262
aVSes01F_script01_3_F015
p1263
aVSes01F_script01_3_F016
p1264
aVSes01F_script01_3_F022
p1265
aVSes01F_script01_3_F028
p1266
aVSes01F_script01_3_F029
p1267
aVSes01F_script01_3_F030
p1268
aVSes01F_script01_3_F031
p1269
aVSes01F_script01_3_M000
p1270
aVSes01F_script01_3_M001
p1271
aVSes01F_script01_3_M003
p1272
aVSes01F_script01_3_M004
p1273
aVSes01F_script01_3_M005
p1274
aVSes01F_script01_3_M021
p1275
aVSes01F_script01_3_M022
p1276
aVSes01F_script01_3_M023
p1277
aVSes01F_script01_3_M024
p1278
aVSes01F_script01_3_M025
p1279
aVSes01F_script01_3_M026
p1280
aVSes01F_script01_3_M027
p1281
aVSes01F_script01_3_M028
p1282
aVSes01F_script01_3_M029
p1283
aVSes01F_script01_3_M030
p1284
aVSes01F_script01_3_M032
p1285
aVSes01F_script01_3_M033
p1286
aVSes01F_script01_3_M036
p1287
aVSes01F_script01_3_M037
p1288
aVSes01F_script02_1_F000
p1289
aVSes01F_script02_1_F004
p1290
aVSes01F_script02_1_F006
p1291
aVSes01F_script02_1_F007
p1292
aVSes01F_script02_1_F008
p1293
aVSes01F_script02_1_F010
p1294
aVSes01F_script02_1_F015
p1295
aVSes01F_script02_1_F024
p1296
aVSes01F_script02_1_F025
p1297
aVSes01F_script02_1_M002
p1298
aVSes01F_script02_1_M007
p1299
aVSes01F_script02_1_M008
p1300
aVSes01F_script02_1_M009
p1301
aVSes01F_script02_1_M010
p1302
aVSes01F_script02_1_M011
p1303
aVSes01F_script02_1_M013
p1304
aVSes01F_script02_1_M014
p1305
aVSes01F_script02_1_M015
p1306
aVSes01F_script02_1_M016
p1307
aVSes01F_script02_1_M020
p1308
aVSes01F_script02_1_M021
p1309
aVSes01F_script02_1_M023
p1310
aVSes01F_script02_1_M024
p1311
aVSes01F_script02_1_M025
p1312
aVSes01F_script02_1_M026
p1313
aVSes01F_script02_1_M029
p1314
aVSes01F_script02_1_M031
p1315
aVSes01F_script02_1_M032
p1316
aVSes01F_script02_1_M033
p1317
aVSes01F_script02_1_M034
p1318
aVSes01F_script02_1_M035
p1319
aVSes01F_script02_1_M038
p1320
aVSes01F_script02_1_M040
p1321
aVSes01F_script02_2_F000
p1322
aVSes01F_script02_2_F001
p1323
aVSes01F_script02_2_F006
p1324
aVSes01F_script02_2_F008
p1325
aVSes01F_script02_2_F009
p1326
aVSes01F_script02_2_F010
p1327
aVSes01F_script02_2_F015
p1328
aVSes01F_script02_2_F016
p1329
aVSes01F_script02_2_F017
p1330
aVSes01F_script02_2_F022
p1331
aVSes01F_script02_2_F023
p1332
aVSes01F_script02_2_F026
p1333
aVSes01F_script02_2_F034
p1334
aVSes01F_script02_2_F035
p1335
aVSes01F_script02_2_F036
p1336
aVSes01F_script02_2_F040
p1337
aVSes01F_script02_2_F041
p1338
aVSes01F_script02_2_F046
p1339
aVSes01F_script02_2_F047
p1340
aVSes01F_script02_2_M000
p1341
aVSes01F_script02_2_M001
p1342
aVSes01F_script02_2_M002
p1343
aVSes01F_script02_2_M006
p1344
aVSes01F_script02_2_M016
p1345
aVSes01F_script02_2_M017
p1346
aVSes01F_script02_2_M019
p1347
aVSes01F_script02_2_M021
p1348
aVSes01F_script02_2_M022
p1349
aVSes01F_script02_2_M023
p1350
aVSes01F_script02_2_M033
p1351
aVSes01F_script02_2_M037
p1352
aVSes01F_script02_2_M038
p1353
aVSes01F_script02_2_M040
p1354
aVSes01F_script02_2_M042
p1355
aVSes01F_script02_2_M043
p1356
aVSes01F_script02_2_M047
p1357
aVSes01F_script02_2_M048
p1358
aVSes01F_script03_1_F006
p1359
aVSes01F_script03_1_F007
p1360
aVSes01F_script03_1_F012
p1361
aVSes01F_script03_1_F024
p1362
aVSes01F_script03_1_M005
p1363
aVSes01F_script03_1_M021
p1364
aVSes01F_script03_1_M024
p1365
aVSes01F_script03_2_F004
p1366
aVSes01F_script03_2_F005
p1367
aVSes01F_script03_2_F013
p1368
aVSes01F_script03_2_F014
p1369
aVSes01F_script03_2_F015
p1370
aVSes01F_script03_2_F016
p1371
aVSes01F_script03_2_F017
p1372
aVSes01F_script03_2_F018
p1373
aVSes01F_script03_2_F021
p1374
aVSes01F_script03_2_F022
p1375
aVSes01F_script03_2_F023
p1376
aVSes01F_script03_2_F024
p1377
aVSes01F_script03_2_F025
p1378
aVSes01F_script03_2_F026
p1379
aVSes01F_script03_2_F027
p1380
aVSes01F_script03_2_F028
p1381
aVSes01F_script03_2_F029
p1382
aVSes01F_script03_2_F030
p1383
aVSes01F_script03_2_F031
p1384
aVSes01F_script03_2_F032
p1385
aVSes01F_script03_2_F034
p1386
aVSes01F_script03_2_F035
p1387
aVSes01F_script03_2_F036
p1388
aVSes01F_script03_2_F037
p1389
aVSes01F_script03_2_F038
p1390
aVSes01F_script03_2_F039
p1391
aVSes01F_script03_2_F040
p1392
aVSes01F_script03_2_M001
p1393
aVSes01F_script03_2_M002
p1394
aVSes01F_script03_2_M004
p1395
aVSes01F_script03_2_M007
p1396
aVSes01F_script03_2_M010
p1397
aVSes01F_script03_2_M011
p1398
aVSes01F_script03_2_M014
p1399
aVSes01F_script03_2_M016
p1400
aVSes01F_script03_2_M018
p1401
aVSes01F_script03_2_M019
p1402
aVSes01F_script03_2_M020
p1403
aVSes01F_script03_2_M021
p1404
aVSes01F_script03_2_M022
p1405
aVSes01F_script03_2_M023
p1406
aVSes01F_script03_2_M024
p1407
aVSes01F_script03_2_M025
p1408
aVSes01F_script03_2_M026
p1409
aVSes01F_script03_2_M027
p1410
aVSes01F_script03_2_M029
p1411
aVSes01F_script03_2_M030
p1412
aVSes01F_script03_2_M031
p1413
aVSes01F_script03_2_M032
p1414
aVSes01F_script03_2_M033
p1415
aVSes01F_script03_2_M034
p1416
aVSes01F_script03_2_M035
p1417
aVSes01F_script03_2_M036
p1418
aVSes01F_script03_2_M037
p1419
aVSes01F_script03_2_M038
p1420
aVSes01F_script03_2_M039
p1421
aVSes01F_script03_2_M040
p1422
aVSes01M_impro01_F000
p1423
aVSes01M_impro01_F001
p1424
aVSes01M_impro01_F007
p1425
aVSes01M_impro01_F008
p1426
aVSes01M_impro01_F011
p1427
aVSes01M_impro01_F012
p1428
aVSes01M_impro01_F019
p1429
aVSes01M_impro01_F020
p1430
aVSes01M_impro01_F021
p1431
aVSes01M_impro01_F022
p1432
aVSes01M_impro01_F024
p1433
aVSes01M_impro01_F025
p1434
aVSes01M_impro01_M003
p1435
aVSes01M_impro01_M010
p1436
aVSes01M_impro01_M020
p1437
aVSes01M_impro01_M025
p1438
aVSes01M_impro01_M030
p1439
aVSes01M_impro01_M031
p1440
aVSes01M_impro01_M032
p1441
aVSes01M_impro02_F000
p1442
aVSes01M_impro02_F009
p1443
aVSes01M_impro02_F010
p1444
aVSes01M_impro02_F013
p1445
aVSes01M_impro02_F015
p1446
aVSes01M_impro02_F017
p1447
aVSes01M_impro02_F019
p1448
aVSes01M_impro02_M000
p1449
aVSes01M_impro02_M001
p1450
aVSes01M_impro02_M002
p1451
aVSes01M_impro02_M003
p1452
aVSes01M_impro02_M007
p1453
aVSes01M_impro02_M009
p1454
aVSes01M_impro02_M010
p1455
aVSes01M_impro02_M011
p1456
aVSes01M_impro02_M012
p1457
aVSes01M_impro02_M013
p1458
aVSes01M_impro02_M014
p1459
aVSes01M_impro02_M015
p1460
aVSes01M_impro02_M016
p1461
aVSes01M_impro02_M017
p1462
aVSes01M_impro02_M018
p1463
aVSes01M_impro02_M019
p1464
aVSes01M_impro02_M020
p1465
aVSes01M_impro02_M021
p1466
aVSes01M_impro02_M022
p1467
aVSes01M_impro02_M023
p1468
aVSes01M_impro02_M025
p1469
aVSes01M_impro03_F002
p1470
aVSes01M_impro03_F003
p1471
aVSes01M_impro03_F004
p1472
aVSes01M_impro03_F005
p1473
aVSes01M_impro03_F006
p1474
aVSes01M_impro03_F007
p1475
aVSes01M_impro03_F008
p1476
aVSes01M_impro03_F009
p1477
aVSes01M_impro03_F010
p1478
aVSes01M_impro03_F011
p1479
aVSes01M_impro03_F012
p1480
aVSes01M_impro03_F013
p1481
aVSes01M_impro03_F014
p1482
aVSes01M_impro03_F015
p1483
aVSes01M_impro03_F016
p1484
aVSes01M_impro03_F017
p1485
aVSes01M_impro03_F018
p1486
aVSes01M_impro03_F019
p1487
aVSes01M_impro03_F020
p1488
aVSes01M_impro03_F021
p1489
aVSes01M_impro03_F022
p1490
aVSes01M_impro03_F023
p1491
aVSes01M_impro03_F024
p1492
aVSes01M_impro03_F025
p1493
aVSes01M_impro03_F026
p1494
aVSes01M_impro03_M000
p1495
aVSes01M_impro03_M001
p1496
aVSes01M_impro03_M003
p1497
aVSes01M_impro03_M004
p1498
aVSes01M_impro03_M005
p1499
aVSes01M_impro03_M006
p1500
aVSes01M_impro03_M007
p1501
aVSes01M_impro03_M008
p1502
aVSes01M_impro03_M010
p1503
aVSes01M_impro03_M011
p1504
aVSes01M_impro03_M012
p1505
aVSes01M_impro03_M013
p1506
aVSes01M_impro03_M014
p1507
aVSes01M_impro03_M015
p1508
aVSes01M_impro03_M016
p1509
aVSes01M_impro03_M017
p1510
aVSes01M_impro03_M018
p1511
aVSes01M_impro03_M019
p1512
aVSes01M_impro03_M020
p1513
aVSes01M_impro03_M021
p1514
aVSes01M_impro03_M022
p1515
aVSes01M_impro03_M023
p1516
aVSes01M_impro03_M024
p1517
aVSes01M_impro04_F000
p1518
aVSes01M_impro04_F002
p1519
aVSes01M_impro04_F003
p1520
aVSes01M_impro04_F004
p1521
aVSes01M_impro04_F005
p1522
aVSes01M_impro04_F006
p1523
aVSes01M_impro04_F007
p1524
aVSes01M_impro04_F008
p1525
aVSes01M_impro04_F009
p1526
aVSes01M_impro04_F010
p1527
aVSes01M_impro04_F011
p1528
aVSes01M_impro04_F012
p1529
aVSes01M_impro04_F013
p1530
aVSes01M_impro04_F014
p1531
aVSes01M_impro04_F015
p1532
aVSes01M_impro04_F016
p1533
aVSes01M_impro04_F017
p1534
aVSes01M_impro04_F018
p1535
aVSes01M_impro04_F019
p1536
aVSes01M_impro04_F020
p1537
aVSes01M_impro04_F021
p1538
aVSes01M_impro04_F022
p1539
aVSes01M_impro04_F023
p1540
aVSes01M_impro04_F025
p1541
aVSes01M_impro04_M014
p1542
aVSes01M_impro04_M018
p1543
aVSes01M_impro04_M023
p1544
aVSes01M_impro04_M025
p1545
aVSes01M_impro05_F000
p1546
aVSes01M_impro05_F001
p1547
aVSes01M_impro05_F002
p1548
aVSes01M_impro05_F003
p1549
aVSes01M_impro05_F004
p1550
aVSes01M_impro05_F005
p1551
aVSes01M_impro05_F006
p1552
aVSes01M_impro05_F007
p1553
aVSes01M_impro05_F011
p1554
aVSes01M_impro05_F012
p1555
aVSes01M_impro05_F013
p1556
aVSes01M_impro05_F014
p1557
aVSes01M_impro05_F015
p1558
aVSes01M_impro05_F016
p1559
aVSes01M_impro05_F017
p1560
aVSes01M_impro05_F018
p1561
aVSes01M_impro05_F019
p1562
aVSes01M_impro05_F020
p1563
aVSes01M_impro05_F021
p1564
aVSes01M_impro05_F022
p1565
aVSes01M_impro05_F023
p1566
aVSes01M_impro05_F024
p1567
aVSes01M_impro05_F025
p1568
aVSes01M_impro05_F026
p1569
aVSes01M_impro05_F027
p1570
aVSes01M_impro05_F028
p1571
aVSes01M_impro05_F029
p1572
aVSes01M_impro05_F030
p1573
aVSes01M_impro05_F031
p1574
aVSes01M_impro05_F032
p1575
aVSes01M_impro05_F033
p1576
aVSes01M_impro05_F034
p1577
aVSes01M_impro05_M004
p1578
aVSes01M_impro05_M005
p1579
aVSes01M_impro05_M006
p1580
aVSes01M_impro05_M007
p1581
aVSes01M_impro05_M008
p1582
aVSes01M_impro05_M015
p1583
aVSes01M_impro05_M020
p1584
aVSes01M_impro05_M021
p1585
aVSes01M_impro05_M022
p1586
aVSes01M_impro05_M023
p1587
aVSes01M_impro05_M024
p1588
aVSes01M_impro05_M025
p1589
aVSes01M_impro05_M026
p1590
aVSes01M_impro05_M027
p1591
aVSes01M_impro05_M028
p1592
aVSes01M_impro05_M031
p1593
aVSes01M_impro06_F000
p1594
aVSes01M_impro06_F001
p1595
aVSes01M_impro06_F002
p1596
aVSes01M_impro06_F003
p1597
aVSes01M_impro06_F004
p1598
aVSes01M_impro06_F005
p1599
aVSes01M_impro06_F006
p1600
aVSes01M_impro06_F007
p1601
aVSes01M_impro06_F008
p1602
aVSes01M_impro06_F009
p1603
aVSes01M_impro06_F010
p1604
aVSes01M_impro06_F011
p1605
aVSes01M_impro06_F012
p1606
aVSes01M_impro06_F013
p1607
aVSes01M_impro06_F014
p1608
aVSes01M_impro06_F015
p1609
aVSes01M_impro06_F016
p1610
aVSes01M_impro06_F017
p1611
aVSes01M_impro06_F018
p1612
aVSes01M_impro06_F019
p1613
aVSes01M_impro06_F020
p1614
aVSes01M_impro06_F021
p1615
aVSes01M_impro06_F022
p1616
aVSes01M_impro06_F023
p1617
aVSes01M_impro06_F024
p1618
aVSes01M_impro06_F025
p1619
aVSes01M_impro06_F026
p1620
aVSes01M_impro06_F027
p1621
aVSes01M_impro06_F028
p1622
aVSes01M_impro06_M000
p1623
aVSes01M_impro06_M001
p1624
aVSes01M_impro06_M002
p1625
aVSes01M_impro06_M003
p1626
aVSes01M_impro06_M004
p1627
aVSes01M_impro06_M005
p1628
aVSes01M_impro06_M006
p1629
aVSes01M_impro06_M007
p1630
aVSes01M_impro06_M008
p1631
aVSes01M_impro06_M009
p1632
aVSes01M_impro06_M010
p1633
aVSes01M_impro06_M011
p1634
aVSes01M_impro06_M012
p1635
aVSes01M_impro06_M013
p1636
aVSes01M_impro06_M014
p1637
aVSes01M_impro06_M015
p1638
aVSes01M_impro06_M016
p1639
aVSes01M_impro06_M017
p1640
aVSes01M_impro06_M018
p1641
aVSes01M_impro06_M019
p1642
aVSes01M_impro06_M020
p1643
aVSes01M_impro06_M021
p1644
aVSes01M_impro06_M022
p1645
aVSes01M_impro06_M023
p1646
aVSes01M_impro06_M024
p1647
aVSes01M_impro06_M025
p1648
aVSes01M_impro06_M026
p1649
aVSes01M_impro06_M027
p1650
aVSes01M_impro06_M028
p1651
aVSes01M_impro06_M029
p1652
aVSes01M_impro06_M030
p1653
aVSes01M_impro07_F000
p1654
aVSes01M_impro07_F001
p1655
aVSes01M_impro07_F003
p1656
aVSes01M_impro07_F004
p1657
aVSes01M_impro07_F005
p1658
aVSes01M_impro07_F006
p1659
aVSes01M_impro07_F007
p1660
aVSes01M_impro07_F008
p1661
aVSes01M_impro07_F009
p1662
aVSes01M_impro07_F010
p1663
aVSes01M_impro07_F011
p1664
aVSes01M_impro07_F012
p1665
aVSes01M_impro07_F013
p1666
aVSes01M_impro07_F014
p1667
aVSes01M_impro07_F015
p1668
aVSes01M_impro07_F016
p1669
aVSes01M_impro07_F018
p1670
aVSes01M_impro07_F020
p1671
aVSes01M_impro07_F021
p1672
aVSes01M_impro07_F022
p1673
aVSes01M_impro07_F023
p1674
aVSes01M_impro07_F024
p1675
aVSes01M_impro07_F025
p1676
aVSes01M_impro07_F026
p1677
aVSes01M_impro07_F027
p1678
aVSes01M_impro07_M000
p1679
aVSes01M_impro07_M001
p1680
aVSes01M_impro07_M002
p1681
aVSes01M_impro07_M003
p1682
aVSes01M_impro07_M004
p1683
aVSes01M_impro07_M005
p1684
aVSes01M_impro07_M007
p1685
aVSes01M_impro07_M008
p1686
aVSes01M_impro07_M009
p1687
aVSes01M_impro07_M010
p1688
aVSes01M_impro07_M018
p1689
aVSes01M_impro07_M020
p1690
aVSes01M_impro07_M024
p1691
aVSes01M_impro07_M026
p1692
aVSes01M_impro07_M030
p1693
aVSes01M_script01_1_F004
p1694
aVSes01M_script01_1_F005
p1695
aVSes01M_script01_1_F006
p1696
aVSes01M_script01_1_F008
p1697
aVSes01M_script01_1_F011
p1698
aVSes01M_script01_1_F014
p1699
aVSes01M_script01_1_F015
p1700
aVSes01M_script01_1_F016
p1701
aVSes01M_script01_1_F017
p1702
aVSes01M_script01_1_F020
p1703
aVSes01M_script01_1_F023
p1704
aVSes01M_script01_1_F024
p1705
aVSes01M_script01_1_F025
p1706
aVSes01M_script01_1_F026
p1707
aVSes01M_script01_1_F029
p1708
aVSes01M_script01_1_F030
p1709
aVSes01M_script01_1_F031
p1710
aVSes01M_script01_1_F032
p1711
aVSes01M_script01_1_F035
p1712
aVSes01M_script01_1_F036
p1713
aVSes01M_script01_1_F037
p1714
aVSes01M_script01_1_F039
p1715
aVSes01M_script01_1_F040
p1716
aVSes01M_script01_1_F041
p1717
aVSes01M_script01_1_F042
p1718
aVSes01M_script01_1_F043
p1719
aVSes01M_script01_1_M000
p1720
aVSes01M_script01_1_M002
p1721
aVSes01M_script01_1_M003
p1722
aVSes01M_script01_1_M004
p1723
aVSes01M_script01_1_M005
p1724
aVSes01M_script01_1_M006
p1725
aVSes01M_script01_1_M007
p1726
aVSes01M_script01_1_M017
p1727
aVSes01M_script01_1_M020
p1728
aVSes01M_script01_1_M021
p1729
aVSes01M_script01_1_M023
p1730
aVSes01M_script01_1_M024
p1731
aVSes01M_script01_1_M034
p1732
aVSes01M_script01_1_M035
p1733
aVSes01M_script01_1_M037
p1734
aVSes01M_script01_1_M038
p1735
aVSes01M_script01_1_M040
p1736
aVSes01M_script01_1_M041
p1737
aVSes01M_script01_1_M042
p1738
aVSes01M_script01_2_F000
p1739
aVSes01M_script01_2_F001
p1740
aVSes01M_script01_2_F004
p1741
aVSes01M_script01_2_F005
p1742
aVSes01M_script01_2_F009
p1743
aVSes01M_script01_2_F011
p1744
aVSes01M_script01_2_F012
p1745
aVSes01M_script01_2_F013
p1746
aVSes01M_script01_2_M000
p1747
aVSes01M_script01_2_M001
p1748
aVSes01M_script01_2_M007
p1749
aVSes01M_script01_2_M015
p1750
aVSes01M_script01_2_M016
p1751
aVSes01M_script01_2_M017
p1752
aVSes01M_script01_3_F000
p1753
aVSes01M_script01_3_F001
p1754
aVSes01M_script01_3_F003
p1755
aVSes01M_script01_3_F004
p1756
aVSes01M_script01_3_F005
p1757
aVSes01M_script01_3_F006
p1758
aVSes01M_script01_3_F008
p1759
aVSes01M_script01_3_F012
p1760
aVSes01M_script01_3_F014
p1761
aVSes01M_script01_3_F015
p1762
aVSes01M_script01_3_F018
p1763
aVSes01M_script01_3_F019
p1764
aVSes01M_script01_3_F021
p1765
aVSes01M_script01_3_F022
p1766
aVSes01M_script01_3_F023
p1767
aVSes01M_script01_3_F024
p1768
aVSes01M_script01_3_F025
p1769
aVSes01M_script01_3_F026
p1770
aVSes01M_script01_3_M002
p1771
aVSes01M_script01_3_M004
p1772
aVSes01M_script01_3_M006
p1773
aVSes01M_script01_3_M007
p1774
aVSes01M_script01_3_M014
p1775
aVSes01M_script01_3_M016
p1776
aVSes01M_script01_3_M018
p1777
aVSes01M_script01_3_M020
p1778
aVSes01M_script01_3_M021
p1779
aVSes01M_script01_3_M022
p1780
aVSes01M_script01_3_M023
p1781
aVSes01M_script01_3_M024
p1782
aVSes01M_script01_3_M025
p1783
aVSes01M_script01_3_M026
p1784
aVSes01M_script01_3_M027
p1785
aVSes01M_script01_3_M028
p1786
aVSes01M_script01_3_M029
p1787
aVSes01M_script01_3_M030
p1788
aVSes01M_script01_3_M031
p1789
aVSes01M_script01_3_M032
p1790
aVSes01M_script01_3_M033
p1791
aVSes01M_script01_3_M034
p1792
aVSes01M_script01_3_M035
p1793
aVSes01M_script01_3_M036
p1794
aVSes01M_script01_3_M037
p1795
aVSes01M_script01_3_M038
p1796
aVSes01M_script01_3_M039
p1797
aVSes01M_script01_3_M040
p1798
aVSes01M_script01_3_M041
p1799
aVSes01M_script02_1_F005
p1800
aVSes01M_script02_1_F007
p1801
aVSes01M_script02_1_F008
p1802
aVSes01M_script02_1_F014
p1803
aVSes01M_script02_1_F017
p1804
aVSes01M_script02_1_F021
p1805
aVSes01M_script02_1_F022
p1806
aVSes01M_script02_1_F023
p1807
aVSes01M_script02_1_M000
p1808
aVSes01M_script02_1_M001
p1809
aVSes01M_script02_1_M002
p1810
aVSes01M_script02_1_M004
p1811
aVSes01M_script02_1_M005
p1812
aVSes01M_script02_1_M007
p1813
aVSes01M_script02_1_M009
p1814
aVSes01M_script02_1_M010
p1815
aVSes01M_script02_1_M011
p1816
aVSes01M_script02_1_M014
p1817
aVSes01M_script02_1_M016
p1818
aVSes01M_script02_1_M017
p1819
aVSes01M_script02_1_M022
p1820
aVSes01M_script02_1_M023
p1821
aVSes01M_script02_1_M028
p1822
aVSes01M_script02_1_M030
p1823
aVSes01M_script02_1_M031
p1824
aVSes01M_script02_1_M032
p1825
aVSes01M_script02_1_M037
p1826
aVSes01M_script02_1_M039
p1827
aVSes01M_script02_1_M040
p1828
aVSes01M_script02_1_M041
p1829
aVSes01M_script02_1_M042
p1830
aVSes01M_script02_1_M043
p1831
aVSes01M_script02_1_M044
p1832
aVSes01M_script02_1_M045
p1833
aVSes01M_script02_1_M046
p1834
aVSes01M_script02_2_F000
p1835
aVSes01M_script02_2_F010
p1836
aVSes01M_script02_2_F011
p1837
aVSes01M_script02_2_F013
p1838
aVSes01M_script02_2_F014
p1839
aVSes01M_script02_2_F015
p1840
aVSes01M_script02_2_F016
p1841
aVSes01M_script02_2_F019
p1842
aVSes01M_script02_2_F022
p1843
aVSes01M_script02_2_F024
p1844
aVSes01M_script02_2_F025
p1845
aVSes01M_script02_2_F026
p1846
aVSes01M_script02_2_F030
p1847
aVSes01M_script02_2_F031
p1848
aVSes01M_script02_2_F032
p1849
aVSes01M_script02_2_F033
p1850
aVSes01M_script02_2_F034
p1851
aVSes01M_script02_2_F035
p1852
aVSes01M_script02_2_F036
p1853
aVSes01M_script02_2_F037
p1854
aVSes01M_script02_2_F040
p1855
aVSes01M_script02_2_F046
p1856
aVSes01M_script02_2_F047
p1857
aVSes01M_script02_2_M001
p1858
aVSes01M_script02_2_M002
p1859
aVSes01M_script02_2_M003
p1860
aVSes01M_script02_2_M008
p1861
aVSes01M_script02_2_M013
p1862
aVSes01M_script02_2_M019
p1863
aVSes01M_script02_2_M020
p1864
aVSes01M_script02_2_M021
p1865
aVSes01M_script02_2_M022
p1866
aVSes01M_script02_2_M023
p1867
aVSes01M_script02_2_M025
p1868
aVSes01M_script02_2_M027
p1869
aVSes01M_script02_2_M028
p1870
aVSes01M_script02_2_M029
p1871
aVSes01M_script02_2_M030
p1872
aVSes01M_script02_2_M033
p1873
aVSes01M_script02_2_M035
p1874
aVSes01M_script02_2_M037
p1875
aVSes01M_script02_2_M038
p1876
aVSes01M_script02_2_M039
p1877
aVSes01M_script02_2_M040
p1878
aVSes01M_script02_2_M041
p1879
aVSes01M_script02_2_M042
p1880
aVSes01M_script02_2_M043
p1881
aVSes01M_script02_2_M044
p1882
aVSes01M_script02_2_M045
p1883
aVSes01M_script02_2_M050
p1884
aVSes01M_script02_2_M051
p1885
aVSes01M_script02_2_M054
p1886
aVSes01M_script03_1_F007
p1887
aVSes01M_script03_1_F031
p1888
aVSes01M_script03_1_F041
p1889
aVSes01M_script03_1_M014
p1890
aVSes01M_script03_1_M028
p1891
aVSes01M_script03_1_M029
p1892
aVSes01M_script03_1_M037
p1893
aVSes01M_script03_2_F006
p1894
aVSes01M_script03_2_F010
p1895
aVSes01M_script03_2_F011
p1896
aVSes01M_script03_2_F015
p1897
aVSes01M_script03_2_F017
p1898
aVSes01M_script03_2_F022
p1899
aVSes01M_script03_2_F023
p1900
aVSes01M_script03_2_F024
p1901
aVSes01M_script03_2_F025
p1902
aVSes01M_script03_2_F026
p1903
aVSes01M_script03_2_F027
p1904
aVSes01M_script03_2_F028
p1905
aVSes01M_script03_2_F029
p1906
aVSes01M_script03_2_F030
p1907
aVSes01M_script03_2_F031
p1908
aVSes01M_script03_2_F033
p1909
aVSes01M_script03_2_F034
p1910
aVSes01M_script03_2_F035
p1911
aVSes01M_script03_2_F036
p1912
aVSes01M_script03_2_F037
p1913
aVSes01M_script03_2_F038
p1914
aVSes01M_script03_2_F039
p1915
aVSes01M_script03_2_F040
p1916
aVSes01M_script03_2_F041
p1917
aVSes01M_script03_2_M012
p1918
aVSes01M_script03_2_M013
p1919
aVSes01M_script03_2_M018
p1920
aVSes01M_script03_2_M022
p1921
aVSes01M_script03_2_M023
p1922
aVSes01M_script03_2_M024
p1923
aVSes01M_script03_2_M025
p1924
aVSes01M_script03_2_M026
p1925
aVSes01M_script03_2_M027
p1926
aVSes01M_script03_2_M028
p1927
aVSes01M_script03_2_M029
p1928
aVSes01M_script03_2_M030
p1929
aVSes01M_script03_2_M031
p1930
aVSes01M_script03_2_M032
p1931
aVSes01M_script03_2_M033
p1932
aVSes01M_script03_2_M034
p1933
aVSes01M_script03_2_M035
p1934
aVSes01M_script03_2_M036
p1935
aVSes01M_script03_2_M037
p1936
aVSes01M_script03_2_M038
p1937
aVSes01M_script03_2_M039
p1938
aVSes01M_script03_2_M040
p1939
aVSes01M_script03_2_M041
p1940
aVSes01M_script03_2_M042
p1941
aVSes01M_script03_2_M043
p1942
aVSes02F_impro01_F000
p1943
aVSes02F_impro01_F018
p1944
aVSes02F_impro01_F019
p1945
aVSes02F_impro01_F020
p1946
aVSes02F_impro01_F021
p1947
aVSes02F_impro01_M000
p1948
aVSes02F_impro01_M001
p1949
aVSes02F_impro01_M002
p1950
aVSes02F_impro01_M004
p1951
aVSes02F_impro01_M017
p1952
aVSes02F_impro01_M019
p1953
aVSes02F_impro02_F000
p1954
aVSes02F_impro02_F001
p1955
aVSes02F_impro02_F002
p1956
aVSes02F_impro02_F003
p1957
aVSes02F_impro02_F004
p1958
aVSes02F_impro02_F005
p1959
aVSes02F_impro02_F006
p1960
aVSes02F_impro02_F007
p1961
aVSes02F_impro02_F008
p1962
aVSes02F_impro02_F009
p1963
aVSes02F_impro02_F010
p1964
aVSes02F_impro02_F011
p1965
aVSes02F_impro02_F012
p1966
aVSes02F_impro02_F013
p1967
aVSes02F_impro02_M007
p1968
aVSes02F_impro02_M012
p1969
aVSes02F_impro03_F000
p1970
aVSes02F_impro03_F001
p1971
aVSes02F_impro03_F004
p1972
aVSes02F_impro03_F009
p1973
aVSes02F_impro03_F011
p1974
aVSes02F_impro03_F012
p1975
aVSes02F_impro03_F013
p1976
aVSes02F_impro03_F014
p1977
aVSes02F_impro03_F021
p1978
aVSes02F_impro03_F024
p1979
aVSes02F_impro03_F028
p1980
aVSes02F_impro03_M001
p1981
aVSes02F_impro03_M005
p1982
aVSes02F_impro03_M012
p1983
aVSes02F_impro03_M013
p1984
aVSes02F_impro03_M014
p1985
aVSes02F_impro03_M015
p1986
aVSes02F_impro03_M016
p1987
aVSes02F_impro03_M017
p1988
aVSes02F_impro03_M018
p1989
aVSes02F_impro03_M024
p1990
aVSes02F_impro03_M025
p1991
aVSes02F_impro04_F009
p1992
aVSes02F_impro04_F016
p1993
aVSes02F_impro04_M000
p1994
aVSes02F_impro04_M001
p1995
aVSes02F_impro04_M003
p1996
aVSes02F_impro04_M004
p1997
aVSes02F_impro04_M005
p1998
aVSes02F_impro04_M006
p1999
aVSes02F_impro04_M007
p2000
aVSes02F_impro04_M008
p2001
aVSes02F_impro04_M009
p2002
aVSes02F_impro04_M010
p2003
aVSes02F_impro04_M011
p2004
aVSes02F_impro04_M012
p2005
aVSes02F_impro04_M013
p2006
aVSes02F_impro04_M015
p2007
aVSes02F_impro04_M016
p2008
aVSes02F_impro04_M017
p2009
aVSes02F_impro04_M018
p2010
aVSes02F_impro04_M019
p2011
aVSes02F_impro05_F000
p2012
aVSes02F_impro05_F001
p2013
aVSes02F_impro05_F004
p2014
aVSes02F_impro05_F006
p2015
aVSes02F_impro05_F010
p2016
aVSes02F_impro05_F019
p2017
aVSes02F_impro05_M000
p2018
aVSes02F_impro05_M001
p2019
aVSes02F_impro05_M002
p2020
aVSes02F_impro05_M003
p2021
aVSes02F_impro05_M004
p2022
aVSes02F_impro05_M005
p2023
aVSes02F_impro05_M006
p2024
aVSes02F_impro05_M007
p2025
aVSes02F_impro05_M008
p2026
aVSes02F_impro05_M009
p2027
aVSes02F_impro05_M010
p2028
aVSes02F_impro05_M011
p2029
aVSes02F_impro05_M012
p2030
aVSes02F_impro05_M013
p2031
aVSes02F_impro05_M014
p2032
aVSes02F_impro05_M015
p2033
aVSes02F_impro05_M016
p2034
aVSes02F_impro05_M017
p2035
aVSes02F_impro05_M018
p2036
aVSes02F_impro05_M019
p2037
aVSes02F_impro05_M020
p2038
aVSes02F_impro05_M021
p2039
aVSes02F_impro06_F000
p2040
aVSes02F_impro06_F001
p2041
aVSes02F_impro06_F002
p2042
aVSes02F_impro06_F003
p2043
aVSes02F_impro06_F004
p2044
aVSes02F_impro06_F005
p2045
aVSes02F_impro06_F006
p2046
aVSes02F_impro06_F007
p2047
aVSes02F_impro06_F008
p2048
aVSes02F_impro06_F009
p2049
aVSes02F_impro06_F010
p2050
aVSes02F_impro06_F011
p2051
aVSes02F_impro06_F012
p2052
aVSes02F_impro06_F013
p2053
aVSes02F_impro06_F014
p2054
aVSes02F_impro06_M000
p2055
aVSes02F_impro06_M001
p2056
aVSes02F_impro06_M002
p2057
aVSes02F_impro06_M003
p2058
aVSes02F_impro06_M004
p2059
aVSes02F_impro06_M005
p2060
aVSes02F_impro06_M006
p2061
aVSes02F_impro06_M007
p2062
aVSes02F_impro06_M008
p2063
aVSes02F_impro06_M009
p2064
aVSes02F_impro06_M010
p2065
aVSes02F_impro06_M011
p2066
aVSes02F_impro06_M012
p2067
aVSes02F_impro06_M013
p2068
aVSes02F_impro06_M014
p2069
aVSes02F_impro06_M015
p2070
aVSes02F_impro06_M016
p2071
aVSes02F_impro06_M017
p2072
aVSes02F_impro06_M018
p2073
aVSes02F_impro06_M019
p2074
aVSes02F_impro07_F001
p2075
aVSes02F_impro07_F002
p2076
aVSes02F_impro07_F003
p2077
aVSes02F_impro07_F004
p2078
aVSes02F_impro07_F005
p2079
aVSes02F_impro07_F006
p2080
aVSes02F_impro07_F007
p2081
aVSes02F_impro07_F008
p2082
aVSes02F_impro07_F009
p2083
aVSes02F_impro07_F010
p2084
aVSes02F_impro07_F011
p2085
aVSes02F_impro07_F012
p2086
aVSes02F_impro07_F013
p2087
aVSes02F_impro07_F014
p2088
aVSes02F_impro07_F015
p2089
aVSes02F_impro07_F016
p2090
aVSes02F_impro07_F017
p2091
aVSes02F_impro07_F018
p2092
aVSes02F_impro07_F019
p2093
aVSes02F_impro07_F020
p2094
aVSes02F_impro07_F021
p2095
aVSes02F_impro07_F022
p2096
aVSes02F_impro07_F023
p2097
aVSes02F_impro07_F024
p2098
aVSes02F_impro07_F025
p2099
aVSes02F_impro07_F026
p2100
aVSes02F_impro07_F027
p2101
aVSes02F_impro07_F028
p2102
aVSes02F_impro07_F029
p2103
aVSes02F_impro07_F030
p2104
aVSes02F_impro07_F031
p2105
aVSes02F_impro07_F032
p2106
aVSes02F_impro07_F033
p2107
aVSes02F_impro07_F034
p2108
aVSes02F_impro07_F035
p2109
aVSes02F_impro07_F036
p2110
aVSes02F_impro07_F037
p2111
aVSes02F_impro07_M000
p2112
aVSes02F_impro07_M001
p2113
aVSes02F_impro07_M002
p2114
aVSes02F_impro07_M003
p2115
aVSes02F_impro07_M004
p2116
aVSes02F_impro07_M005
p2117
aVSes02F_impro07_M006
p2118
aVSes02F_impro07_M007
p2119
aVSes02F_impro07_M008
p2120
aVSes02F_impro07_M009
p2121
aVSes02F_impro07_M010
p2122
aVSes02F_impro07_M011
p2123
aVSes02F_impro07_M016
p2124
aVSes02F_impro07_M017
p2125
aVSes02F_impro07_M023
p2126
aVSes02F_impro07_M027
p2127
aVSes02F_impro07_M028
p2128
aVSes02F_impro07_M029
p2129
aVSes02F_impro07_M034
p2130
aVSes02F_impro08_F000
p2131
aVSes02F_impro08_F001
p2132
aVSes02F_impro08_F002
p2133
aVSes02F_impro08_F003
p2134
aVSes02F_impro08_F004
p2135
aVSes02F_impro08_F005
p2136
aVSes02F_impro08_F006
p2137
aVSes02F_impro08_F007
p2138
aVSes02F_impro08_F008
p2139
aVSes02F_impro08_F009
p2140
aVSes02F_impro08_F010
p2141
aVSes02F_impro08_F011
p2142
aVSes02F_impro08_F012
p2143
aVSes02F_impro08_F013
p2144
aVSes02F_impro08_F014
p2145
aVSes02F_impro08_F015
p2146
aVSes02F_impro08_F016
p2147
aVSes02F_impro08_F017
p2148
aVSes02F_impro08_F018
p2149
aVSes02F_impro08_F019
p2150
aVSes02F_impro08_F020
p2151
aVSes02F_impro08_F021
p2152
aVSes02F_impro08_F022
p2153
aVSes02F_impro08_F023
p2154
aVSes02F_impro08_F024
p2155
aVSes02F_impro08_F025
p2156
aVSes02F_impro08_F026
p2157
aVSes02F_impro08_F027
p2158
aVSes02F_impro08_M003
p2159
aVSes02F_impro08_M005
p2160
aVSes02F_impro08_M006
p2161
aVSes02F_impro08_M007
p2162
aVSes02F_impro08_M008
p2163
aVSes02F_impro08_M009
p2164
aVSes02F_impro08_M010
p2165
aVSes02F_impro08_M011
p2166
aVSes02F_impro08_M012
p2167
aVSes02F_impro08_M013
p2168
aVSes02F_impro08_M015
p2169
aVSes02F_impro08_M016
p2170
aVSes02F_impro08_M018
p2171
aVSes02F_impro08_M019
p2172
aVSes02F_script01_1_F004
p2173
aVSes02F_script01_1_F005
p2174
aVSes02F_script01_1_F006
p2175
aVSes02F_script01_1_F017
p2176
aVSes02F_script01_1_F018
p2177
aVSes02F_script01_1_F019
p2178
aVSes02F_script01_1_F021
p2179
aVSes02F_script01_1_F025
p2180
aVSes02F_script01_1_F026
p2181
aVSes02F_script01_1_F027
p2182
aVSes02F_script01_1_F028
p2183
aVSes02F_script01_1_F036
p2184
aVSes02F_script01_1_F037
p2185
aVSes02F_script01_1_F038
p2186
aVSes02F_script01_1_F040
p2187
aVSes02F_script01_1_F044
p2188
aVSes02F_script01_1_M011
p2189
aVSes02F_script01_1_M013
p2190
aVSes02F_script01_1_M017
p2191
aVSes02F_script01_1_M021
p2192
aVSes02F_script01_1_M023
p2193
aVSes02F_script01_1_M025
p2194
aVSes02F_script01_1_M027
p2195
aVSes02F_script01_1_M029
p2196
aVSes02F_script01_1_M036
p2197
aVSes02F_script01_1_M037
p2198
aVSes02F_script01_1_M038
p2199
aVSes02F_script01_1_M040
p2200
aVSes02F_script01_1_M043
p2201
aVSes02F_script01_1_M044
p2202
aVSes02F_script01_2_F005
p2203
aVSes02F_script01_2_F012
p2204
aVSes02F_script01_2_F013
p2205
aVSes02F_script01_2_M001
p2206
aVSes02F_script01_2_M002
p2207
aVSes02F_script01_2_M004
p2208
aVSes02F_script01_2_M005
p2209
aVSes02F_script01_2_M006
p2210
aVSes02F_script01_2_M007
p2211
aVSes02F_script01_2_M008
p2212
aVSes02F_script01_2_M016
p2213
aVSes02F_script01_2_M017
p2214
aVSes02F_script01_2_M018
p2215
aVSes02F_script01_3_F009
p2216
aVSes02F_script01_3_F020
p2217
aVSes02F_script01_3_F021
p2218
aVSes02F_script01_3_F022
p2219
aVSes02F_script01_3_F023
p2220
aVSes02F_script01_3_F024
p2221
aVSes02F_script01_3_F025
p2222
aVSes02F_script01_3_F026
p2223
aVSes02F_script01_3_M001
p2224
aVSes02F_script01_3_M010
p2225
aVSes02F_script01_3_M020
p2226
aVSes02F_script01_3_M021
p2227
aVSes02F_script01_3_M022
p2228
aVSes02F_script01_3_M023
p2229
aVSes02F_script01_3_M024
p2230
aVSes02F_script01_3_M025
p2231
aVSes02F_script01_3_M026
p2232
aVSes02F_script01_3_M027
p2233
aVSes02F_script01_3_M028
p2234
aVSes02F_script01_3_M029
p2235
aVSes02F_script01_3_M030
p2236
aVSes02F_script01_3_M031
p2237
aVSes02F_script01_3_M032
p2238
aVSes02F_script01_3_M033
p2239
aVSes02F_script01_3_M034
p2240
aVSes02F_script02_1_F001
p2241
aVSes02F_script02_1_F005
p2242
aVSes02F_script02_1_F019
p2243
aVSes02F_script02_1_F021
p2244
aVSes02F_script02_1_M000
p2245
aVSes02F_script02_1_M001
p2246
aVSes02F_script02_1_M002
p2247
aVSes02F_script02_1_M003
p2248
aVSes02F_script02_1_M004
p2249
aVSes02F_script02_1_M005
p2250
aVSes02F_script02_1_M006
p2251
aVSes02F_script02_1_M009
p2252
aVSes02F_script02_1_M010
p2253
aVSes02F_script02_1_M012
p2254
aVSes02F_script02_1_M013
p2255
aVSes02F_script02_1_M014
p2256
aVSes02F_script02_1_M015
p2257
aVSes02F_script02_1_M016
p2258
aVSes02F_script02_1_M017
p2259
aVSes02F_script02_1_M019
p2260
aVSes02F_script02_1_M020
p2261
aVSes02F_script02_1_M021
p2262
aVSes02F_script02_1_M024
p2263
aVSes02F_script02_1_M025
p2264
aVSes02F_script02_1_M026
p2265
aVSes02F_script02_1_M028
p2266
aVSes02F_script02_1_M031
p2267
aVSes02F_script02_1_M033
p2268
aVSes02F_script02_1_M035
p2269
aVSes02F_script02_1_M036
p2270
aVSes02F_script02_1_M039
p2271
aVSes02F_script02_1_M040
p2272
aVSes02F_script02_1_M041
p2273
aVSes02F_script02_1_M042
p2274
aVSes02F_script02_1_M043
p2275
aVSes02F_script02_1_M044
p2276
aVSes02F_script02_2_F000
p2277
aVSes02F_script02_2_F005
p2278
aVSes02F_script02_2_F006
p2279
aVSes02F_script02_2_F011
p2280
aVSes02F_script02_2_F015
p2281
aVSes02F_script02_2_F016
p2282
aVSes02F_script02_2_F017
p2283
aVSes02F_script02_2_F018
p2284
aVSes02F_script02_2_F019
p2285
aVSes02F_script02_2_F020
p2286
aVSes02F_script02_2_F021
p2287
aVSes02F_script02_2_F022
p2288
aVSes02F_script02_2_F024
p2289
aVSes02F_script02_2_F031
p2290
aVSes02F_script02_2_F033
p2291
aVSes02F_script02_2_F034
p2292
aVSes02F_script02_2_F035
p2293
aVSes02F_script02_2_F038
p2294
aVSes02F_script02_2_F044
p2295
aVSes02F_script02_2_M000
p2296
aVSes02F_script02_2_M001
p2297
aVSes02F_script02_2_M002
p2298
aVSes02F_script02_2_M003
p2299
aVSes02F_script02_2_M005
p2300
aVSes02F_script02_2_M007
p2301
aVSes02F_script02_2_M009
p2302
aVSes02F_script02_2_M010
p2303
aVSes02F_script02_2_M013
p2304
aVSes02F_script02_2_M016
p2305
aVSes02F_script02_2_M017
p2306
aVSes02F_script02_2_M018
p2307
aVSes02F_script02_2_M019
p2308
aVSes02F_script02_2_M020
p2309
aVSes02F_script02_2_M021
p2310
aVSes02F_script02_2_M022
p2311
aVSes02F_script02_2_M023
p2312
aVSes02F_script02_2_M029
p2313
aVSes02F_script02_2_M031
p2314
aVSes02F_script02_2_M033
p2315
aVSes02F_script02_2_M034
p2316
aVSes02F_script02_2_M035
p2317
aVSes02F_script02_2_M036
p2318
aVSes02F_script02_2_M037
p2319
aVSes02F_script02_2_M038
p2320
aVSes02F_script03_1_F005
p2321
aVSes02F_script03_1_F012
p2322
aVSes02F_script03_1_F013
p2323
aVSes02F_script03_1_F014
p2324
aVSes02F_script03_1_F015
p2325
aVSes02F_script03_1_F016
p2326
aVSes02F_script03_1_F017
p2327
aVSes02F_script03_1_F027
p2328
aVSes02F_script03_1_F029
p2329
aVSes02F_script03_1_M001
p2330
aVSes02F_script03_1_M004
p2331
aVSes02F_script03_1_M005
p2332
aVSes02F_script03_1_M007
p2333
aVSes02F_script03_1_M008
p2334
aVSes02F_script03_1_M009
p2335
aVSes02F_script03_1_M010
p2336
aVSes02F_script03_1_M012
p2337
aVSes02F_script03_1_M013
p2338
aVSes02F_script03_1_M014
p2339
aVSes02F_script03_1_M015
p2340
aVSes02F_script03_1_M016
p2341
aVSes02F_script03_1_M017
p2342
aVSes02F_script03_1_M018
p2343
aVSes02F_script03_1_M019
p2344
aVSes02F_script03_1_M020
p2345
aVSes02F_script03_1_M021
p2346
aVSes02F_script03_1_M022
p2347
aVSes02F_script03_1_M023
p2348
aVSes02F_script03_1_M024
p2349
aVSes02F_script03_1_M025
p2350
aVSes02F_script03_1_M026
p2351
aVSes02F_script03_1_M028
p2352
aVSes02F_script03_1_M029
p2353
aVSes02F_script03_1_M031
p2354
aVSes02F_script03_1_M032
p2355
aVSes02F_script03_1_M033
p2356
aVSes02F_script03_1_M034
p2357
aVSes02F_script03_2_F007
p2358
aVSes02F_script03_2_F011
p2359
aVSes02F_script03_2_F012
p2360
aVSes02F_script03_2_F013
p2361
aVSes02F_script03_2_F014
p2362
aVSes02F_script03_2_F016
p2363
aVSes02F_script03_2_F018
p2364
aVSes02F_script03_2_F020
p2365
aVSes02F_script03_2_F025
p2366
aVSes02F_script03_2_F029
p2367
aVSes02F_script03_2_F031
p2368
aVSes02F_script03_2_F034
p2369
aVSes02F_script03_2_F035
p2370
aVSes02F_script03_2_F036
p2371
aVSes02F_script03_2_F037
p2372
aVSes02F_script03_2_F038
p2373
aVSes02F_script03_2_F039
p2374
aVSes02F_script03_2_F040
p2375
aVSes02F_script03_2_F041
p2376
aVSes02F_script03_2_F042
p2377
aVSes02F_script03_2_F043
p2378
aVSes02F_script03_2_M000
p2379
aVSes02F_script03_2_M001
p2380
aVSes02F_script03_2_M006
p2381
aVSes02F_script03_2_M007
p2382
aVSes02F_script03_2_M009
p2383
aVSes02F_script03_2_M011
p2384
aVSes02F_script03_2_M013
p2385
aVSes02F_script03_2_M027
p2386
aVSes02F_script03_2_M030
p2387
aVSes02F_script03_2_M036
p2388
aVSes02F_script03_2_M037
p2389
aVSes02F_script03_2_M038
p2390
aVSes02F_script03_2_M039
p2391
aVSes02F_script03_2_M041
p2392
aVSes02F_script03_2_M042
p2393
aVSes02F_script03_2_M043
p2394
aVSes02F_script03_2_M044
p2395
aVSes02F_script03_2_M045
p2396
aVSes02F_script03_2_M046
p2397
aVSes02F_script03_2_M047
p2398
aVSes02M_impro01_F000
p2399
aVSes02M_impro01_F001
p2400
aVSes02M_impro01_F002
p2401
aVSes02M_impro01_F003
p2402
aVSes02M_impro01_F004
p2403
aVSes02M_impro01_F005
p2404
aVSes02M_impro01_F006
p2405
aVSes02M_impro01_F015
p2406
aVSes02M_impro01_F016
p2407
aVSes02M_impro01_M001
p2408
aVSes02M_impro01_M002
p2409
aVSes02M_impro01_M003
p2410
aVSes02M_impro01_M004
p2411
aVSes02M_impro01_M005
p2412
aVSes02M_impro01_M007
p2413
aVSes02M_impro01_M008
p2414
aVSes02M_impro01_M009
p2415
aVSes02M_impro01_M010
p2416
aVSes02M_impro01_M011
p2417
aVSes02M_impro01_M018
p2418
aVSes02M_impro01_M019
p2419
aVSes02M_impro02_F000
p2420
aVSes02M_impro02_F001
p2421
aVSes02M_impro02_F002
p2422
aVSes02M_impro02_F003
p2423
aVSes02M_impro02_F004
p2424
aVSes02M_impro02_F005
p2425
aVSes02M_impro02_F006
p2426
aVSes02M_impro02_F007
p2427
aVSes02M_impro02_F008
p2428
aVSes02M_impro02_F009
p2429
aVSes02M_impro02_F010
p2430
aVSes02M_impro02_F012
p2431
aVSes02M_impro02_F013
p2432
aVSes02M_impro02_F014
p2433
aVSes02M_impro02_M000
p2434
aVSes02M_impro02_M001
p2435
aVSes02M_impro02_M002
p2436
aVSes02M_impro02_M007
p2437
aVSes02M_impro02_M008
p2438
aVSes02M_impro02_M009
p2439
aVSes02M_impro02_M013
p2440
aVSes02M_impro02_M014
p2441
aVSes02M_impro02_M017
p2442
aVSes02M_impro02_M018
p2443
aVSes02M_impro03_F000
p2444
aVSes02M_impro03_F001
p2445
aVSes02M_impro03_F003
p2446
aVSes02M_impro03_F004
p2447
aVSes02M_impro03_F005
p2448
aVSes02M_impro03_F007
p2449
aVSes02M_impro03_F008
p2450
aVSes02M_impro03_F011
p2451
aVSes02M_impro03_F012
p2452
aVSes02M_impro03_F013
p2453
aVSes02M_impro03_F014
p2454
aVSes02M_impro03_F015
p2455
aVSes02M_impro03_F016
p2456
aVSes02M_impro03_F017
p2457
aVSes02M_impro03_F018
p2458
aVSes02M_impro03_F020
p2459
aVSes02M_impro03_F023
p2460
aVSes02M_impro03_F024
p2461
aVSes02M_impro03_F028
p2462
aVSes02M_impro03_M000
p2463
aVSes02M_impro03_M001
p2464
aVSes02M_impro03_M005
p2465
aVSes02M_impro03_M008
p2466
aVSes02M_impro03_M009
p2467
aVSes02M_impro03_M016
p2468
aVSes02M_impro03_M018
p2469
aVSes02M_impro03_M019
p2470
aVSes02M_impro03_M020
p2471
aVSes02M_impro03_M024
p2472
aVSes02M_impro03_M026
p2473
aVSes02M_impro03_M030
p2474
aVSes02M_impro04_F000
p2475
aVSes02M_impro04_F001
p2476
aVSes02M_impro04_F002
p2477
aVSes02M_impro04_F003
p2478
aVSes02M_impro04_F004
p2479
aVSes02M_impro04_F005
p2480
aVSes02M_impro04_F006
p2481
aVSes02M_impro04_F007
p2482
aVSes02M_impro04_F008
p2483
aVSes02M_impro04_F009
p2484
aVSes02M_impro04_F010
p2485
aVSes02M_impro04_F011
p2486
aVSes02M_impro04_F012
p2487
aVSes02M_impro04_F014
p2488
aVSes02M_impro04_F015
p2489
aVSes02M_impro04_F016
p2490
aVSes02M_impro04_M014
p2491
aVSes02M_impro04_M019
p2492
aVSes02M_impro04_M022
p2493
aVSes02M_impro05_F000
p2494
aVSes02M_impro05_F001
p2495
aVSes02M_impro05_F002
p2496
aVSes02M_impro05_F003
p2497
aVSes02M_impro05_F004
p2498
aVSes02M_impro05_F005
p2499
aVSes02M_impro05_F006
p2500
aVSes02M_impro05_F007
p2501
aVSes02M_impro05_F008
p2502
aVSes02M_impro05_F009
p2503
aVSes02M_impro05_F010
p2504
aVSes02M_impro05_F011
p2505
aVSes02M_impro05_F012
p2506
aVSes02M_impro05_F013
p2507
aVSes02M_impro05_F014
p2508
aVSes02M_impro05_F015
p2509
aVSes02M_impro05_F016
p2510
aVSes02M_impro05_F017
p2511
aVSes02M_impro05_F018
p2512
aVSes02M_impro05_F019
p2513
aVSes02M_impro05_F020
p2514
aVSes02M_impro05_F021
p2515
aVSes02M_impro05_F023
p2516
aVSes02M_impro05_F024
p2517
aVSes02M_impro05_F025
p2518
aVSes02M_impro05_F026
p2519
aVSes02M_impro05_M000
p2520
aVSes02M_impro05_M001
p2521
aVSes02M_impro05_M002
p2522
aVSes02M_impro05_M003
p2523
aVSes02M_impro05_M013
p2524
aVSes02M_impro05_M016
p2525
aVSes02M_impro05_M018
p2526
aVSes02M_impro05_M025
p2527
aVSes02M_impro05_M026
p2528
aVSes02M_impro06_F002
p2529
aVSes02M_impro06_F003
p2530
aVSes02M_impro06_F004
p2531
aVSes02M_impro06_F005
p2532
aVSes02M_impro06_F006
p2533
aVSes02M_impro06_F007
p2534
aVSes02M_impro06_F008
p2535
aVSes02M_impro06_F009
p2536
aVSes02M_impro06_F010
p2537
aVSes02M_impro06_F011
p2538
aVSes02M_impro06_F012
p2539
aVSes02M_impro06_F013
p2540
aVSes02M_impro06_F014
p2541
aVSes02M_impro06_F015
p2542
aVSes02M_impro06_F016
p2543
aVSes02M_impro06_F017
p2544
aVSes02M_impro06_F018
p2545
aVSes02M_impro06_M000
p2546
aVSes02M_impro06_M001
p2547
aVSes02M_impro06_M002
p2548
aVSes02M_impro06_M003
p2549
aVSes02M_impro06_M004
p2550
aVSes02M_impro06_M005
p2551
aVSes02M_impro06_M006
p2552
aVSes02M_impro06_M007
p2553
aVSes02M_impro06_M008
p2554
aVSes02M_impro06_M009
p2555
aVSes02M_impro06_M010
p2556
aVSes02M_impro06_M011
p2557
aVSes02M_impro06_M012
p2558
aVSes02M_impro06_M013
p2559
aVSes02M_impro06_M014
p2560
aVSes02M_impro06_M015
p2561
aVSes02M_impro06_M016
p2562
aVSes02M_impro06_M017
p2563
aVSes02M_impro06_M018
p2564
aVSes02M_impro06_M019
p2565
aVSes02M_impro06_M020
p2566
aVSes02M_impro06_M021
p2567
aVSes02M_impro06_M022
p2568
aVSes02M_impro06_M023
p2569
aVSes02M_impro07_F000
p2570
aVSes02M_impro07_F001
p2571
aVSes02M_impro07_F003
p2572
aVSes02M_impro07_F004
p2573
aVSes02M_impro07_F005
p2574
aVSes02M_impro07_F006
p2575
aVSes02M_impro07_F007
p2576
aVSes02M_impro07_F008
p2577
aVSes02M_impro07_F009
p2578
aVSes02M_impro07_F010
p2579
aVSes02M_impro07_F011
p2580
aVSes02M_impro07_F012
p2581
aVSes02M_impro07_F013
p2582
aVSes02M_impro07_F022
p2583
aVSes02M_impro07_F023
p2584
aVSes02M_impro07_F025
p2585
aVSes02M_impro07_F026
p2586
aVSes02M_impro07_F027
p2587
aVSes02M_impro07_M002
p2588
aVSes02M_impro07_M006
p2589
aVSes02M_impro07_M007
p2590
aVSes02M_impro07_M008
p2591
aVSes02M_impro07_M013
p2592
aVSes02M_impro07_M014
p2593
aVSes02M_impro07_M015
p2594
aVSes02M_impro07_M017
p2595
aVSes02M_impro07_M018
p2596
aVSes02M_impro07_M019
p2597
aVSes02M_impro07_M020
p2598
aVSes02M_impro07_M021
p2599
aVSes02M_impro07_M022
p2600
aVSes02M_impro07_M029
p2601
aVSes02M_impro07_M031
p2602
aVSes02M_impro07_M032
p2603
aVSes02M_impro08_F000
p2604
aVSes02M_impro08_F001
p2605
aVSes02M_impro08_F002
p2606
aVSes02M_impro08_F006
p2607
aVSes02M_impro08_F007
p2608
aVSes02M_impro08_F008
p2609
aVSes02M_impro08_F010
p2610
aVSes02M_impro08_F019
p2611
aVSes02M_impro08_F025
p2612
aVSes02M_impro08_F026
p2613
aVSes02M_impro08_F027
p2614
aVSes02M_impro08_M000
p2615
aVSes02M_impro08_M002
p2616
aVSes02M_impro08_M003
p2617
aVSes02M_impro08_M004
p2618
aVSes02M_impro08_M005
p2619
aVSes02M_impro08_M007
p2620
aVSes02M_impro08_M008
p2621
aVSes02M_impro08_M009
p2622
aVSes02M_impro08_M010
p2623
aVSes02M_impro08_M011
p2624
aVSes02M_impro08_M012
p2625
aVSes02M_impro08_M013
p2626
aVSes02M_impro08_M014
p2627
aVSes02M_impro08_M015
p2628
aVSes02M_impro08_M016
p2629
aVSes02M_impro08_M017
p2630
aVSes02M_impro08_M018
p2631
aVSes02M_impro08_M019
p2632
aVSes02M_impro08_M020
p2633
aVSes02M_impro08_M021
p2634
aVSes02M_impro08_M022
p2635
aVSes02M_impro08_M023
p2636
aVSes02M_impro08_M024
p2637
aVSes02M_impro08_M025
p2638
aVSes02M_impro08_M026
p2639
aVSes02M_impro08_M027
p2640
aVSes02M_impro08_M028
p2641
aVSes02M_impro08_M029
p2642
aVSes02M_impro08_M030
p2643
aVSes02M_impro08_M031
p2644
aVSes02M_script01_1_F015
p2645
aVSes02M_script01_1_F018
p2646
aVSes02M_script01_1_F021
p2647
aVSes02M_script01_1_F023
p2648
aVSes02M_script01_1_F025
p2649
aVSes02M_script01_1_F026
p2650
aVSes02M_script01_1_F027
p2651
aVSes02M_script01_1_F032
p2652
aVSes02M_script01_1_F033
p2653
aVSes02M_script01_1_F034
p2654
aVSes02M_script01_1_F035
p2655
aVSes02M_script01_1_F036
p2656
aVSes02M_script01_1_F037
p2657
aVSes02M_script01_1_F041
p2658
aVSes02M_script01_1_M003
p2659
aVSes02M_script01_1_M004
p2660
aVSes02M_script01_1_M005
p2661
aVSes02M_script01_1_M012
p2662
aVSes02M_script01_1_M013
p2663
aVSes02M_script01_1_M016
p2664
aVSes02M_script01_1_M017
p2665
aVSes02M_script01_1_M018
p2666
aVSes02M_script01_1_M021
p2667
aVSes02M_script01_1_M024
p2668
aVSes02M_script01_1_M025
p2669
aVSes02M_script01_1_M026
p2670
aVSes02M_script01_1_M027
p2671
aVSes02M_script01_1_M028
p2672
aVSes02M_script01_1_M035
p2673
aVSes02M_script01_1_M036
p2674
aVSes02M_script01_1_M037
p2675
aVSes02M_script01_1_M038
p2676
aVSes02M_script01_1_M039
p2677
aVSes02M_script01_1_M041
p2678
aVSes02M_script01_2_F000
p2679
aVSes02M_script01_2_F001
p2680
aVSes02M_script01_2_F002
p2681
aVSes02M_script01_2_F003
p2682
aVSes02M_script01_2_F005
p2683
aVSes02M_script01_2_F006
p2684
aVSes02M_script01_2_F010
p2685
aVSes02M_script01_2_F013
p2686
aVSes02M_script01_2_M001
p2687
aVSes02M_script01_2_M004
p2688
aVSes02M_script01_2_M005
p2689
aVSes02M_script01_2_M007
p2690
aVSes02M_script01_2_M016
p2691
aVSes02M_script01_2_M017
p2692
aVSes02M_script01_3_F008
p2693
aVSes02M_script01_3_F019
p2694
aVSes02M_script01_3_F021
p2695
aVSes02M_script01_3_F025
p2696
aVSes02M_script01_3_F026
p2697
aVSes02M_script01_3_F027
p2698
aVSes02M_script01_3_M010
p2699
aVSes02M_script01_3_M014
p2700
aVSes02M_script01_3_M015
p2701
aVSes02M_script01_3_M020
p2702
aVSes02M_script01_3_M021
p2703
aVSes02M_script01_3_M022
p2704
aVSes02M_script01_3_M025
p2705
aVSes02M_script01_3_M026
p2706
aVSes02M_script01_3_M027
p2707
aVSes02M_script01_3_M028
p2708
aVSes02M_script01_3_M029
p2709
aVSes02M_script01_3_M030
p2710
aVSes02M_script01_3_M031
p2711
aVSes02M_script01_3_M032
p2712
aVSes02M_script01_3_M033
p2713
aVSes02M_script01_3_M034
p2714
aVSes02M_script01_3_M035
p2715
aVSes02M_script01_3_M036
p2716
aVSes02M_script02_1_F000
p2717
aVSes02M_script02_1_F001
p2718
aVSes02M_script02_1_F005
p2719
aVSes02M_script02_1_F006
p2720
aVSes02M_script02_1_F011
p2721
aVSes02M_script02_1_F016
p2722
aVSes02M_script02_1_F017
p2723
aVSes02M_script02_1_F018
p2724
aVSes02M_script02_1_F020
p2725
aVSes02M_script02_1_F021
p2726
aVSes02M_script02_1_M000
p2727
aVSes02M_script02_1_M001
p2728
aVSes02M_script02_1_M003
p2729
aVSes02M_script02_1_M004
p2730
aVSes02M_script02_1_M005
p2731
aVSes02M_script02_1_M006
p2732
aVSes02M_script02_1_M013
p2733
aVSes02M_script02_1_M014
p2734
aVSes02M_script02_1_M015
p2735
aVSes02M_script02_1_M016
p2736
aVSes02M_script02_1_M023
p2737
aVSes02M_script02_1_M024
p2738
aVSes02M_script02_1_M025
p2739
aVSes02M_script02_1_M026
p2740
aVSes02M_script02_1_M028
p2741
aVSes02M_script02_1_M029
p2742
aVSes02M_script02_1_M035
p2743
aVSes02M_script02_1_M036
p2744
aVSes02M_script02_1_M037
p2745
aVSes02M_script02_1_M038
p2746
aVSes02M_script02_1_M039
p2747
aVSes02M_script02_1_M040
p2748
aVSes02M_script02_1_M041
p2749
aVSes02M_script02_1_M042
p2750
aVSes02M_script02_2_F005
p2751
aVSes02M_script02_2_F006
p2752
aVSes02M_script02_2_F011
p2753
aVSes02M_script02_2_F013
p2754
aVSes02M_script02_2_F015
p2755
aVSes02M_script02_2_F016
p2756
aVSes02M_script02_2_F017
p2757
aVSes02M_script02_2_F018
p2758
aVSes02M_script02_2_F019
p2759
aVSes02M_script02_2_F020
p2760
aVSes02M_script02_2_F021
p2761
aVSes02M_script02_2_F022
p2762
aVSes02M_script02_2_F031
p2763
aVSes02M_script02_2_F034
p2764
aVSes02M_script02_2_F038
p2765
aVSes02M_script02_2_F044
p2766
aVSes02M_script02_2_F046
p2767
aVSes02M_script02_2_M000
p2768
aVSes02M_script02_2_M001
p2769
aVSes02M_script02_2_M002
p2770
aVSes02M_script02_2_M010
p2771
aVSes02M_script02_2_M015
p2772
aVSes02M_script02_2_M016
p2773
aVSes02M_script02_2_M017
p2774
aVSes02M_script02_2_M019
p2775
aVSes02M_script02_2_M020
p2776
aVSes02M_script02_2_M021
p2777
aVSes02M_script02_2_M022
p2778
aVSes02M_script02_2_M023
p2779
aVSes02M_script02_2_M025
p2780
aVSes02M_script02_2_M029
p2781
aVSes02M_script02_2_M035
p2782
aVSes02M_script02_2_M037
p2783
aVSes02M_script02_2_M038
p2784
aVSes02M_script03_1_F002
p2785
aVSes02M_script03_1_F005
p2786
aVSes02M_script03_1_F012
p2787
aVSes02M_script03_1_F015
p2788
aVSes02M_script03_1_M005
p2789
aVSes02M_script03_1_M009
p2790
aVSes02M_script03_1_M012
p2791
aVSes02M_script03_1_M014
p2792
aVSes02M_script03_1_M015
p2793
aVSes02M_script03_1_M016
p2794
aVSes02M_script03_1_M018
p2795
aVSes02M_script03_1_M019
p2796
aVSes02M_script03_1_M020
p2797
aVSes02M_script03_1_M021
p2798
aVSes02M_script03_1_M022
p2799
aVSes02M_script03_2_F000
p2800
aVSes02M_script03_2_F001
p2801
aVSes02M_script03_2_F002
p2802
aVSes02M_script03_2_F003
p2803
aVSes02M_script03_2_F005
p2804
aVSes02M_script03_2_F006
p2805
aVSes02M_script03_2_F007
p2806
aVSes02M_script03_2_F009
p2807
aVSes02M_script03_2_F011
p2808
aVSes02M_script03_2_F012
p2809
aVSes02M_script03_2_F014
p2810
aVSes02M_script03_2_F015
p2811
aVSes02M_script03_2_F019
p2812
aVSes02M_script03_2_F023
p2813
aVSes02M_script03_2_F024
p2814
aVSes02M_script03_2_F028
p2815
aVSes02M_script03_2_F035
p2816
aVSes02M_script03_2_F036
p2817
aVSes02M_script03_2_F037
p2818
aVSes02M_script03_2_F038
p2819
aVSes02M_script03_2_F039
p2820
aVSes02M_script03_2_F040
p2821
aVSes02M_script03_2_F041
p2822
aVSes02M_script03_2_F042
p2823
aVSes02M_script03_2_M000
p2824
aVSes02M_script03_2_M001
p2825
aVSes02M_script03_2_M003
p2826
aVSes02M_script03_2_M005
p2827
aVSes02M_script03_2_M007
p2828
aVSes02M_script03_2_M010
p2829
aVSes02M_script03_2_M011
p2830
aVSes02M_script03_2_M012
p2831
aVSes02M_script03_2_M016
p2832
aVSes02M_script03_2_M018
p2833
aVSes02M_script03_2_M024
p2834
aVSes02M_script03_2_M026
p2835
aVSes02M_script03_2_M027
p2836
aVSes02M_script03_2_M031
p2837
aVSes02M_script03_2_M032
p2838
aVSes02M_script03_2_M033
p2839
aVSes02M_script03_2_M039
p2840
aVSes02M_script03_2_M040
p2841
aVSes02M_script03_2_M041
p2842
aVSes02M_script03_2_M042
p2843
aVSes02M_script03_2_M043
p2844
aVSes02M_script03_2_M044
p2845
aVSes02M_script03_2_M045
p2846
aVSes02M_script03_2_M046
p2847
aVSes02M_script03_2_M047
p2848
aVSes03F_impro01_F002
p2849
aVSes03F_impro01_M001
p2850
aVSes03F_impro01_M002
p2851
aVSes03F_impro01_M003
p2852
aVSes03F_impro01_M004
p2853
aVSes03F_impro01_M005
p2854
aVSes03F_impro02_F000
p2855
aVSes03F_impro02_F001
p2856
aVSes03F_impro02_F005
p2857
aVSes03F_impro02_F007
p2858
aVSes03F_impro02_F008
p2859
aVSes03F_impro02_F010
p2860
aVSes03F_impro02_F011
p2861
aVSes03F_impro02_F012
p2862
aVSes03F_impro02_F015
p2863
aVSes03F_impro02_F018
p2864
aVSes03F_impro02_F019
p2865
aVSes03F_impro02_F020
p2866
aVSes03F_impro02_F021
p2867
aVSes03F_impro02_F023
p2868
aVSes03F_impro02_F024
p2869
aVSes03F_impro02_F025
p2870
aVSes03F_impro02_F026
p2871
aVSes03F_impro02_F027
p2872
aVSes03F_impro02_F028
p2873
aVSes03F_impro02_F029
p2874
aVSes03F_impro02_F031
p2875
aVSes03F_impro02_F032
p2876
aVSes03F_impro02_F034
p2877
aVSes03F_impro02_F035
p2878
aVSes03F_impro02_F036
p2879
aVSes03F_impro02_F037
p2880
aVSes03F_impro02_F038
p2881
aVSes03F_impro02_F039
p2882
aVSes03F_impro02_F040
p2883
aVSes03F_impro02_F041
p2884
aVSes03F_impro02_F042
p2885
aVSes03F_impro02_F043
p2886
aVSes03F_impro02_M000
p2887
aVSes03F_impro02_M007
p2888
aVSes03F_impro02_M014
p2889
aVSes03F_impro02_M016
p2890
aVSes03F_impro02_M017
p2891
aVSes03F_impro02_M018
p2892
aVSes03F_impro02_M019
p2893
aVSes03F_impro02_M020
p2894
aVSes03F_impro02_M021
p2895
aVSes03F_impro02_M024
p2896
aVSes03F_impro02_M025
p2897
aVSes03F_impro02_M027
p2898
aVSes03F_impro02_M028
p2899
aVSes03F_impro02_M029
p2900
aVSes03F_impro02_M031
p2901
aVSes03F_impro03_F004
p2902
aVSes03F_impro03_F005
p2903
aVSes03F_impro03_F006
p2904
aVSes03F_impro03_F007
p2905
aVSes03F_impro03_F008
p2906
aVSes03F_impro03_F009
p2907
aVSes03F_impro03_F011
p2908
aVSes03F_impro03_F012
p2909
aVSes03F_impro03_F013
p2910
aVSes03F_impro03_F016
p2911
aVSes03F_impro03_F017
p2912
aVSes03F_impro03_F024
p2913
aVSes03F_impro03_M000
p2914
aVSes03F_impro03_M001
p2915
aVSes03F_impro03_M002
p2916
aVSes03F_impro03_M005
p2917
aVSes03F_impro03_M006
p2918
aVSes03F_impro03_M007
p2919
aVSes03F_impro03_M010
p2920
aVSes03F_impro03_M021
p2921
aVSes03F_impro04_F002
p2922
aVSes03F_impro04_F022
p2923
aVSes03F_impro04_F023
p2924
aVSes03F_impro04_F024
p2925
aVSes03F_impro04_M000
p2926
aVSes03F_impro04_M001
p2927
aVSes03F_impro04_M002
p2928
aVSes03F_impro04_M003
p2929
aVSes03F_impro04_M004
p2930
aVSes03F_impro04_M005
p2931
aVSes03F_impro04_M006
p2932
aVSes03F_impro04_M007
p2933
aVSes03F_impro04_M008
p2934
aVSes03F_impro04_M009
p2935
aVSes03F_impro04_M010
p2936
aVSes03F_impro04_M011
p2937
aVSes03F_impro04_M012
p2938
aVSes03F_impro04_M013
p2939
aVSes03F_impro04_M014
p2940
aVSes03F_impro04_M015
p2941
aVSes03F_impro04_M016
p2942
aVSes03F_impro04_M017
p2943
aVSes03F_impro04_M018
p2944
aVSes03F_impro04_M019
p2945
aVSes03F_impro05_F002
p2946
aVSes03F_impro05_F005
p2947
aVSes03F_impro05_F007
p2948
aVSes03F_impro05_F008
p2949
aVSes03F_impro05_F009
p2950
aVSes03F_impro05_F010
p2951
aVSes03F_impro05_F011
p2952
aVSes03F_impro05_F015
p2953
aVSes03F_impro05_F016
p2954
aVSes03F_impro05_F017
p2955
aVSes03F_impro05_M003
p2956
aVSes03F_impro05_M008
p2957
aVSes03F_impro05_M009
p2958
aVSes03F_impro05_M011
p2959
aVSes03F_impro05_M013
p2960
aVSes03F_impro05_M014
p2961
aVSes03F_impro06_F000
p2962
aVSes03F_impro06_F001
p2963
aVSes03F_impro06_F002
p2964
aVSes03F_impro06_F003
p2965
aVSes03F_impro06_F004
p2966
aVSes03F_impro06_F005
p2967
aVSes03F_impro06_F006
p2968
aVSes03F_impro06_F007
p2969
aVSes03F_impro06_F008
p2970
aVSes03F_impro06_F009
p2971
aVSes03F_impro06_F010
p2972
aVSes03F_impro06_F011
p2973
aVSes03F_impro06_F012
p2974
aVSes03F_impro06_F013
p2975
aVSes03F_impro06_F014
p2976
aVSes03F_impro06_F015
p2977
aVSes03F_impro06_F016
p2978
aVSes03F_impro06_F017
p2979
aVSes03F_impro06_F018
p2980
aVSes03F_impro06_F019
p2981
aVSes03F_impro06_F020
p2982
aVSes03F_impro06_F021
p2983
aVSes03F_impro06_F022
p2984
aVSes03F_impro06_F023
p2985
aVSes03F_impro06_F024
p2986
aVSes03F_impro06_F025
p2987
aVSes03F_impro06_F026
p2988
aVSes03F_impro06_F027
p2989
aVSes03F_impro06_F028
p2990
aVSes03F_impro06_F029
p2991
aVSes03F_impro06_F030
p2992
aVSes03F_impro06_F031
p2993
aVSes03F_impro06_F032
p2994
aVSes03F_impro06_F033
p2995
aVSes03F_impro06_F034
p2996
aVSes03F_impro06_F035
p2997
aVSes03F_impro06_M000
p2998
aVSes03F_impro06_M001
p2999
aVSes03F_impro06_M002
p3000
aVSes03F_impro06_M003
p3001
aVSes03F_impro06_M004
p3002
aVSes03F_impro06_M005
p3003
aVSes03F_impro06_M006
p3004
aVSes03F_impro06_M007
p3005
aVSes03F_impro06_M008
p3006
aVSes03F_impro06_M009
p3007
aVSes03F_impro06_M010
p3008
aVSes03F_impro06_M011
p3009
aVSes03F_impro06_M012
p3010
aVSes03F_impro06_M013
p3011
aVSes03F_impro06_M014
p3012
aVSes03F_impro06_M015
p3013
aVSes03F_impro06_M016
p3014
aVSes03F_impro07_F007
p3015
aVSes03F_impro07_F008
p3016
aVSes03F_impro07_F009
p3017
aVSes03F_impro07_F011
p3018
aVSes03F_impro07_F014
p3019
aVSes03F_impro07_F015
p3020
aVSes03F_impro07_F016
p3021
aVSes03F_impro07_F020
p3022
aVSes03F_impro07_F021
p3023
aVSes03F_impro07_F022
p3024
aVSes03F_impro07_F026
p3025
aVSes03F_impro07_F027
p3026
aVSes03F_impro07_F028
p3027
aVSes03F_impro07_F029
p3028
aVSes03F_impro07_F031
p3029
aVSes03F_impro07_M000
p3030
aVSes03F_impro07_M001
p3031
aVSes03F_impro07_M003
p3032
aVSes03F_impro07_M004
p3033
aVSes03F_impro07_M008
p3034
aVSes03F_impro07_M011
p3035
aVSes03F_impro07_M012
p3036
aVSes03F_impro07_M013
p3037
aVSes03F_impro07_M014
p3038
aVSes03F_impro07_M015
p3039
aVSes03F_impro07_M019
p3040
aVSes03F_impro07_M021
p3041
aVSes03F_impro07_M022
p3042
aVSes03F_impro07_M023
p3043
aVSes03F_impro07_M025
p3044
aVSes03F_impro07_M026
p3045
aVSes03F_impro07_M027
p3046
aVSes03F_impro07_M028
p3047
aVSes03F_impro07_M029
p3048
aVSes03F_impro07_M032
p3049
aVSes03F_impro07_M033
p3050
aVSes03F_impro08_F000
p3051
aVSes03F_impro08_F001
p3052
aVSes03F_impro08_F002
p3053
aVSes03F_impro08_F003
p3054
aVSes03F_impro08_F004
p3055
aVSes03F_impro08_F005
p3056
aVSes03F_impro08_F006
p3057
aVSes03F_impro08_F007
p3058
aVSes03F_impro08_F008
p3059
aVSes03F_impro08_F009
p3060
aVSes03F_impro08_F010
p3061
aVSes03F_impro08_F011
p3062
aVSes03F_impro08_F012
p3063
aVSes03F_impro08_F013
p3064
aVSes03F_impro08_F014
p3065
aVSes03F_impro08_F015
p3066
aVSes03F_impro08_F016
p3067
aVSes03F_impro08_F020
p3068
aVSes03F_impro08_F021
p3069
aVSes03F_impro08_F022
p3070
aVSes03F_impro08_F023
p3071
aVSes03F_impro08_F024
p3072
aVSes03F_impro08_F025
p3073
aVSes03F_impro08_F026
p3074
aVSes03F_impro08_F027
p3075
aVSes03F_impro08_F028
p3076
aVSes03F_impro08_F029
p3077
aVSes03F_impro08_M000
p3078
aVSes03F_impro08_M006
p3079
aVSes03F_impro08_M007
p3080
aVSes03F_impro08_M008
p3081
aVSes03F_impro08_M009
p3082
aVSes03F_impro08_M010
p3083
aVSes03F_impro08_M011
p3084
aVSes03F_impro08_M012
p3085
aVSes03F_impro08_M014
p3086
aVSes03F_impro08_M015
p3087
aVSes03F_impro08_M021
p3088
aVSes03F_script01_1_F004
p3089
aVSes03F_script01_1_F005
p3090
aVSes03F_script01_1_F007
p3091
aVSes03F_script01_1_F010
p3092
aVSes03F_script01_1_F014
p3093
aVSes03F_script01_1_F017
p3094
aVSes03F_script01_1_F019
p3095
aVSes03F_script01_1_F021
p3096
aVSes03F_script01_1_F030
p3097
aVSes03F_script01_1_F031
p3098
aVSes03F_script01_1_F045
p3099
aVSes03F_script01_1_F046
p3100
aVSes03F_script01_1_F050
p3101
aVSes03F_script01_1_F052
p3102
aVSes03F_script01_1_F053
p3103
aVSes03F_script01_1_M000
p3104
aVSes03F_script01_1_M001
p3105
aVSes03F_script01_1_M002
p3106
aVSes03F_script01_1_M003
p3107
aVSes03F_script01_1_M004
p3108
aVSes03F_script01_1_M005
p3109
aVSes03F_script01_1_M006
p3110
aVSes03F_script01_1_M007
p3111
aVSes03F_script01_1_M008
p3112
aVSes03F_script01_1_M009
p3113
aVSes03F_script01_1_M016
p3114
aVSes03F_script01_1_M017
p3115
aVSes03F_script01_1_M018
p3116
aVSes03F_script01_1_M020
p3117
aVSes03F_script01_1_M021
p3118
aVSes03F_script01_1_M022
p3119
aVSes03F_script01_1_M026
p3120
aVSes03F_script01_1_M027
p3121
aVSes03F_script01_1_M028
p3122
aVSes03F_script01_1_M029
p3123
aVSes03F_script01_1_M030
p3124
aVSes03F_script01_1_M031
p3125
aVSes03F_script01_1_M034
p3126
aVSes03F_script01_1_M036
p3127
aVSes03F_script01_1_M041
p3128
aVSes03F_script01_1_M042
p3129
aVSes03F_script01_1_M045
p3130
aVSes03F_script01_1_M046
p3131
aVSes03F_script01_1_M047
p3132
aVSes03F_script01_1_M048
p3133
aVSes03F_script01_1_M049
p3134
aVSes03F_script01_1_M050
p3135
aVSes03F_script01_1_M052
p3136
aVSes03F_script01_1_M053
p3137
aVSes03F_script01_2_F000
p3138
aVSes03F_script01_2_F001
p3139
aVSes03F_script01_2_F002
p3140
aVSes03F_script01_2_F004
p3141
aVSes03F_script01_2_F006
p3142
aVSes03F_script01_2_F011
p3143
aVSes03F_script01_2_F013
p3144
aVSes03F_script01_2_F015
p3145
aVSes03F_script01_2_F016
p3146
aVSes03F_script01_2_F018
p3147
aVSes03F_script01_2_F020
p3148
aVSes03F_script01_2_F021
p3149
aVSes03F_script01_2_M001
p3150
aVSes03F_script01_2_M003
p3151
aVSes03F_script01_2_M004
p3152
aVSes03F_script01_2_M006
p3153
aVSes03F_script01_2_M007
p3154
aVSes03F_script01_2_M008
p3155
aVSes03F_script01_2_M009
p3156
aVSes03F_script01_2_M011
p3157
aVSes03F_script01_2_M013
p3158
aVSes03F_script01_2_M014
p3159
aVSes03F_script01_2_M015
p3160
aVSes03F_script01_2_M016
p3161
aVSes03F_script01_2_M017
p3162
aVSes03F_script01_2_M018
p3163
aVSes03F_script01_3_F003
p3164
aVSes03F_script01_3_F008
p3165
aVSes03F_script01_3_F025
p3166
aVSes03F_script01_3_F026
p3167
aVSes03F_script01_3_F027
p3168
aVSes03F_script01_3_F028
p3169
aVSes03F_script01_3_F029
p3170
aVSes03F_script01_3_F030
p3171
aVSes03F_script01_3_F031
p3172
aVSes03F_script01_3_F032
p3173
aVSes03F_script01_3_F033
p3174
aVSes03F_script01_3_M001
p3175
aVSes03F_script01_3_M003
p3176
aVSes03F_script01_3_M004
p3177
aVSes03F_script01_3_M025
p3178
aVSes03F_script01_3_M026
p3179
aVSes03F_script01_3_M027
p3180
aVSes03F_script01_3_M028
p3181
aVSes03F_script01_3_M029
p3182
aVSes03F_script01_3_M030
p3183
aVSes03F_script01_3_M031
p3184
aVSes03F_script01_3_M032
p3185
aVSes03F_script01_3_M033
p3186
aVSes03F_script01_3_M034
p3187
aVSes03F_script01_3_M035
p3188
aVSes03F_script01_3_M036
p3189
aVSes03F_script01_3_M037
p3190
aVSes03F_script01_3_M038
p3191
aVSes03F_script01_3_M039
p3192
aVSes03F_script01_3_M040
p3193
aVSes03F_script01_3_M041
p3194
aVSes03F_script01_3_M042
p3195
aVSes03F_script01_3_M043
p3196
aVSes03F_script02_1_F000
p3197
aVSes03F_script02_1_F003
p3198
aVSes03F_script02_1_F010
p3199
aVSes03F_script02_1_F011
p3200
aVSes03F_script02_1_F012
p3201
aVSes03F_script02_1_M000
p3202
aVSes03F_script02_1_M001
p3203
aVSes03F_script02_1_M002
p3204
aVSes03F_script02_1_M003
p3205
aVSes03F_script02_1_M004
p3206
aVSes03F_script02_1_M005
p3207
aVSes03F_script02_1_M006
p3208
aVSes03F_script02_1_M009
p3209
aVSes03F_script02_1_M010
p3210
aVSes03F_script02_1_M011
p3211
aVSes03F_script02_1_M013
p3212
aVSes03F_script02_1_M014
p3213
aVSes03F_script02_1_M015
p3214
aVSes03F_script02_1_M016
p3215
aVSes03F_script02_1_M017
p3216
aVSes03F_script02_1_M019
p3217
aVSes03F_script02_1_M020
p3218
aVSes03F_script02_1_M021
p3219
aVSes03F_script02_1_M022
p3220
aVSes03F_script02_1_M023
p3221
aVSes03F_script02_1_M036
p3222
aVSes03F_script02_1_M038
p3223
aVSes03F_script02_1_M039
p3224
aVSes03F_script02_1_M040
p3225
aVSes03F_script02_1_M041
p3226
aVSes03F_script02_1_M042
p3227
aVSes03F_script02_1_M044
p3228
aVSes03F_script02_2_F000
p3229
aVSes03F_script02_2_F005
p3230
aVSes03F_script02_2_F012
p3231
aVSes03F_script02_2_F016
p3232
aVSes03F_script02_2_F017
p3233
aVSes03F_script02_2_F018
p3234
aVSes03F_script02_2_F022
p3235
aVSes03F_script02_2_F024
p3236
aVSes03F_script02_2_F025
p3237
aVSes03F_script02_2_F026
p3238
aVSes03F_script02_2_F027
p3239
aVSes03F_script02_2_F028
p3240
aVSes03F_script02_2_F031
p3241
aVSes03F_script02_2_F035
p3242
aVSes03F_script02_2_F036
p3243
aVSes03F_script02_2_F038
p3244
aVSes03F_script02_2_F039
p3245
aVSes03F_script02_2_F040
p3246
aVSes03F_script02_2_F051
p3247
aVSes03F_script02_2_M001
p3248
aVSes03F_script02_2_M005
p3249
aVSes03F_script02_2_M008
p3250
aVSes03F_script02_2_M016
p3251
aVSes03F_script02_2_M026
p3252
aVSes03F_script02_2_M042
p3253
aVSes03F_script02_2_M043
p3254
aVSes03F_script03_1_F000
p3255
aVSes03F_script03_1_F001
p3256
aVSes03F_script03_1_F009
p3257
aVSes03F_script03_1_F014
p3258
aVSes03F_script03_1_F015
p3259
aVSes03F_script03_1_F019
p3260
aVSes03F_script03_1_F027
p3261
aVSes03F_script03_1_M004
p3262
aVSes03F_script03_1_M005
p3263
aVSes03F_script03_1_M007
p3264
aVSes03F_script03_1_M011
p3265
aVSes03F_script03_1_M013
p3266
aVSes03F_script03_1_M020
p3267
aVSes03F_script03_1_M022
p3268
aVSes03F_script03_1_M027
p3269
aVSes03F_script03_2_F004
p3270
aVSes03F_script03_2_F008
p3271
aVSes03F_script03_2_F013
p3272
aVSes03F_script03_2_F014
p3273
aVSes03F_script03_2_F015
p3274
aVSes03F_script03_2_F017
p3275
aVSes03F_script03_2_F018
p3276
aVSes03F_script03_2_F023
p3277
aVSes03F_script03_2_F026
p3278
aVSes03F_script03_2_F035
p3279
aVSes03F_script03_2_F037
p3280
aVSes03F_script03_2_F038
p3281
aVSes03F_script03_2_F039
p3282
aVSes03F_script03_2_F040
p3283
aVSes03F_script03_2_F041
p3284
aVSes03F_script03_2_F042
p3285
aVSes03F_script03_2_F043
p3286
aVSes03F_script03_2_M000
p3287
aVSes03F_script03_2_M001
p3288
aVSes03F_script03_2_M002
p3289
aVSes03F_script03_2_M005
p3290
aVSes03F_script03_2_M007
p3291
aVSes03F_script03_2_M008
p3292
aVSes03F_script03_2_M009
p3293
aVSes03F_script03_2_M010
p3294
aVSes03F_script03_2_M011
p3295
aVSes03F_script03_2_M012
p3296
aVSes03F_script03_2_M014
p3297
aVSes03F_script03_2_M015
p3298
aVSes03F_script03_2_M016
p3299
aVSes03F_script03_2_M017
p3300
aVSes03F_script03_2_M020
p3301
aVSes03F_script03_2_M024
p3302
aVSes03F_script03_2_M026
p3303
aVSes03F_script03_2_M027
p3304
aVSes03F_script03_2_M028
p3305
aVSes03F_script03_2_M029
p3306
aVSes03F_script03_2_M030
p3307
aVSes03F_script03_2_M034
p3308
aVSes03F_script03_2_M035
p3309
aVSes03F_script03_2_M038
p3310
aVSes03F_script03_2_M039
p3311
aVSes03F_script03_2_M040
p3312
aVSes03F_script03_2_M041
p3313
aVSes03F_script03_2_M042
p3314
aVSes03F_script03_2_M043
p3315
aVSes03F_script03_2_M044
p3316
aVSes03M_impro01_F000
p3317
aVSes03M_impro01_F003
p3318
aVSes03M_impro01_F022
p3319
aVSes03M_impro01_F025
p3320
aVSes03M_impro01_M004
p3321
aVSes03M_impro01_M011
p3322
aVSes03M_impro01_M012
p3323
aVSes03M_impro01_M014
p3324
aVSes03M_impro01_M015
p3325
aVSes03M_impro01_M017
p3326
aVSes03M_impro01_M019
p3327
aVSes03M_impro01_M023
p3328
aVSes03M_impro01_M028
p3329
aVSes03M_impro01_M029
p3330
aVSes03M_impro02_F013
p3331
aVSes03M_impro02_F014
p3332
aVSes03M_impro02_F015
p3333
aVSes03M_impro02_F016
p3334
aVSes03M_impro02_F017
p3335
aVSes03M_impro02_F022
p3336
aVSes03M_impro02_F023
p3337
aVSes03M_impro02_F024
p3338
aVSes03M_impro02_F025
p3339
aVSes03M_impro02_F026
p3340
aVSes03M_impro02_F027
p3341
aVSes03M_impro02_F028
p3342
aVSes03M_impro02_F029
p3343
aVSes03M_impro02_F030
p3344
aVSes03M_impro02_F031
p3345
aVSes03M_impro02_F032
p3346
aVSes03M_impro02_F033
p3347
aVSes03M_impro02_F034
p3348
aVSes03M_impro02_M000
p3349
aVSes03M_impro02_M001
p3350
aVSes03M_impro02_M002
p3351
aVSes03M_impro02_M003
p3352
aVSes03M_impro02_M004
p3353
aVSes03M_impro02_M005
p3354
aVSes03M_impro02_M006
p3355
aVSes03M_impro02_M011
p3356
aVSes03M_impro02_M012
p3357
aVSes03M_impro02_M013
p3358
aVSes03M_impro02_M015
p3359
aVSes03M_impro02_M016
p3360
aVSes03M_impro02_M019
p3361
aVSes03M_impro02_M024
p3362
aVSes03M_impro02_M025
p3363
aVSes03M_impro02_M026
p3364
aVSes03M_impro02_M027
p3365
aVSes03M_impro02_M028
p3366
aVSes03M_impro02_M029
p3367
aVSes03M_impro02_M030
p3368
aVSes03M_impro02_M031
p3369
aVSes03M_impro03_F001
p3370
aVSes03M_impro03_F003
p3371
aVSes03M_impro03_F004
p3372
aVSes03M_impro03_F005
p3373
aVSes03M_impro03_F006
p3374
aVSes03M_impro03_F010
p3375
aVSes03M_impro03_F015
p3376
aVSes03M_impro03_F018
p3377
aVSes03M_impro03_F023
p3378
aVSes03M_impro03_F024
p3379
aVSes03M_impro03_F036
p3380
aVSes03M_impro03_M000
p3381
aVSes03M_impro03_M001
p3382
aVSes03M_impro03_M002
p3383
aVSes03M_impro03_M003
p3384
aVSes03M_impro03_M004
p3385
aVSes03M_impro03_M011
p3386
aVSes03M_impro03_M013
p3387
aVSes03M_impro03_M028
p3388
aVSes03M_impro03_M033
p3389
aVSes03M_impro03_M035
p3390
aVSes03M_impro03_M038
p3391
aVSes03M_impro04_F001
p3392
aVSes03M_impro04_F003
p3393
aVSes03M_impro04_F004
p3394
aVSes03M_impro04_F007
p3395
aVSes03M_impro04_F008
p3396
aVSes03M_impro04_F010
p3397
aVSes03M_impro04_F014
p3398
aVSes03M_impro04_F015
p3399
aVSes03M_impro04_F023
p3400
aVSes03M_impro04_F025
p3401
aVSes03M_impro04_F029
p3402
aVSes03M_impro04_F030
p3403
aVSes03M_impro04_F031
p3404
aVSes03M_impro04_F032
p3405
aVSes03M_impro04_M000
p3406
aVSes03M_impro04_M004
p3407
aVSes03M_impro04_M008
p3408
aVSes03M_impro04_M014
p3409
aVSes03M_impro04_M024
p3410
aVSes03M_impro04_M026
p3411
aVSes03M_impro04_M030
p3412
aVSes03M_impro04_M031
p3413
aVSes03M_impro04_M038
p3414
aVSes03M_impro05a_F000
p3415
aVSes03M_impro05a_F001
p3416
aVSes03M_impro05a_F002
p3417
aVSes03M_impro05a_F005
p3418
aVSes03M_impro05a_F007
p3419
aVSes03M_impro05a_F008
p3420
aVSes03M_impro05a_F009
p3421
aVSes03M_impro05a_F011
p3422
aVSes03M_impro05a_F012
p3423
aVSes03M_impro05a_F014
p3424
aVSes03M_impro05a_F016
p3425
aVSes03M_impro05a_F018
p3426
aVSes03M_impro05a_F021
p3427
aVSes03M_impro05a_F023
p3428
aVSes03M_impro05a_F024
p3429
aVSes03M_impro05a_F025
p3430
aVSes03M_impro05a_F028
p3431
aVSes03M_impro05a_M000
p3432
aVSes03M_impro05a_M001
p3433
aVSes03M_impro05a_M002
p3434
aVSes03M_impro05a_M003
p3435
aVSes03M_impro05a_M004
p3436
aVSes03M_impro05a_M005
p3437
aVSes03M_impro05a_M006
p3438
aVSes03M_impro05a_M007
p3439
aVSes03M_impro05a_M010
p3440
aVSes03M_impro05a_M011
p3441
aVSes03M_impro05a_M012
p3442
aVSes03M_impro05a_M013
p3443
aVSes03M_impro05a_M014
p3444
aVSes03M_impro05a_M016
p3445
aVSes03M_impro05a_M017
p3446
aVSes03M_impro05a_M018
p3447
aVSes03M_impro05a_M020
p3448
aVSes03M_impro05a_M021
p3449
aVSes03M_impro05a_M022
p3450
aVSes03M_impro05a_M023
p3451
aVSes03M_impro05a_M024
p3452
aVSes03M_impro05a_M025
p3453
aVSes03M_impro05a_M026
p3454
aVSes03M_impro05a_M027
p3455
aVSes03M_impro05a_M028
p3456
aVSes03M_impro05a_M029
p3457
aVSes03M_impro05a_M030
p3458
aVSes03M_impro05b_F000
p3459
aVSes03M_impro05b_F001
p3460
aVSes03M_impro05b_F002
p3461
aVSes03M_impro05b_F003
p3462
aVSes03M_impro05b_F004
p3463
aVSes03M_impro05b_F005
p3464
aVSes03M_impro05b_F006
p3465
aVSes03M_impro05b_F007
p3466
aVSes03M_impro05b_F008
p3467
aVSes03M_impro05b_F009
p3468
aVSes03M_impro05b_F010
p3469
aVSes03M_impro05b_F011
p3470
aVSes03M_impro05b_F012
p3471
aVSes03M_impro05b_F013
p3472
aVSes03M_impro05b_F014
p3473
aVSes03M_impro05b_F015
p3474
aVSes03M_impro05b_F016
p3475
aVSes03M_impro05b_F018
p3476
aVSes03M_impro05b_F019
p3477
aVSes03M_impro05b_F020
p3478
aVSes03M_impro05b_F021
p3479
aVSes03M_impro05b_F022
p3480
aVSes03M_impro05b_F023
p3481
aVSes03M_impro05b_F027
p3482
aVSes03M_impro05b_F028
p3483
aVSes03M_impro05b_F029
p3484
aVSes03M_impro05b_F030
p3485
aVSes03M_impro05b_M008
p3486
aVSes03M_impro05b_M011
p3487
aVSes03M_impro05b_M013
p3488
aVSes03M_impro05b_M014
p3489
aVSes03M_impro05b_M015
p3490
aVSes03M_impro05b_M016
p3491
aVSes03M_impro05b_M019
p3492
aVSes03M_impro05b_M020
p3493
aVSes03M_impro05b_M021
p3494
aVSes03M_impro05b_M022
p3495
aVSes03M_impro05b_M023
p3496
aVSes03M_impro05b_M024
p3497
aVSes03M_impro05b_M025
p3498
aVSes03M_impro05b_M026
p3499
aVSes03M_impro05b_M027
p3500
aVSes03M_impro05b_M029
p3501
aVSes03M_impro05b_M031
p3502
aVSes03M_impro05b_M032
p3503
aVSes03M_impro05b_M033
p3504
aVSes03M_impro06_F000
p3505
aVSes03M_impro06_F001
p3506
aVSes03M_impro06_F002
p3507
aVSes03M_impro06_F003
p3508
aVSes03M_impro06_F004
p3509
aVSes03M_impro06_F005
p3510
aVSes03M_impro06_F007
p3511
aVSes03M_impro06_F008
p3512
aVSes03M_impro06_F009
p3513
aVSes03M_impro06_F010
p3514
aVSes03M_impro06_F011
p3515
aVSes03M_impro06_F012
p3516
aVSes03M_impro06_F013
p3517
aVSes03M_impro06_F014
p3518
aVSes03M_impro06_F015
p3519
aVSes03M_impro06_F016
p3520
aVSes03M_impro06_F017
p3521
aVSes03M_impro06_F018
p3522
aVSes03M_impro06_F019
p3523
aVSes03M_impro06_F020
p3524
aVSes03M_impro06_M000
p3525
aVSes03M_impro06_M001
p3526
aVSes03M_impro06_M002
p3527
aVSes03M_impro06_M003
p3528
aVSes03M_impro06_M004
p3529
aVSes03M_impro06_M005
p3530
aVSes03M_impro06_M006
p3531
aVSes03M_impro06_M007
p3532
aVSes03M_impro06_M008
p3533
aVSes03M_impro06_M009
p3534
aVSes03M_impro06_M010
p3535
aVSes03M_impro06_M011
p3536
aVSes03M_impro06_M012
p3537
aVSes03M_impro06_M013
p3538
aVSes03M_impro06_M014
p3539
aVSes03M_impro06_M015
p3540
aVSes03M_impro06_M016
p3541
aVSes03M_impro06_M017
p3542
aVSes03M_impro06_M018
p3543
aVSes03M_impro06_M019
p3544
aVSes03M_impro06_M020
p3545
aVSes03M_impro06_M021
p3546
aVSes03M_impro06_M022
p3547
aVSes03M_impro06_M023
p3548
aVSes03M_impro06_M024
p3549
aVSes03M_impro06_M025
p3550
aVSes03M_impro06_M026
p3551
aVSes03M_impro06_M027
p3552
aVSes03M_impro06_M028
p3553
aVSes03M_impro06_M029
p3554
aVSes03M_impro06_M030
p3555
aVSes03M_impro06_M031
p3556
aVSes03M_impro06_M032
p3557
aVSes03M_impro07_F006
p3558
aVSes03M_impro07_F007
p3559
aVSes03M_impro07_F009
p3560
aVSes03M_impro07_F016
p3561
aVSes03M_impro07_F018
p3562
aVSes03M_impro07_F023
p3563
aVSes03M_impro07_M002
p3564
aVSes03M_impro07_M003
p3565
aVSes03M_impro07_M004
p3566
aVSes03M_impro07_M005
p3567
aVSes03M_impro07_M006
p3568
aVSes03M_impro07_M007
p3569
aVSes03M_impro07_M008
p3570
aVSes03M_impro07_M009
p3571
aVSes03M_impro07_M010
p3572
aVSes03M_impro07_M011
p3573
aVSes03M_impro07_M013
p3574
aVSes03M_impro07_M015
p3575
aVSes03M_impro07_M016
p3576
aVSes03M_impro07_M017
p3577
aVSes03M_impro07_M018
p3578
aVSes03M_impro07_M019
p3579
aVSes03M_impro07_M020
p3580
aVSes03M_impro07_M022
p3581
aVSes03M_impro07_M023
p3582
aVSes03M_impro07_M024
p3583
aVSes03M_impro08a_F004
p3584
aVSes03M_impro08a_F013
p3585
aVSes03M_impro08a_F014
p3586
aVSes03M_impro08a_F015
p3587
aVSes03M_impro08a_F020
p3588
aVSes03M_impro08a_F021
p3589
aVSes03M_impro08a_F022
p3590
aVSes03M_impro08a_M000
p3591
aVSes03M_impro08a_M001
p3592
aVSes03M_impro08a_M002
p3593
aVSes03M_impro08a_M003
p3594
aVSes03M_impro08a_M004
p3595
aVSes03M_impro08a_M005
p3596
aVSes03M_impro08a_M006
p3597
aVSes03M_impro08a_M007
p3598
aVSes03M_impro08a_M008
p3599
aVSes03M_impro08a_M009
p3600
aVSes03M_impro08a_M010
p3601
aVSes03M_impro08a_M012
p3602
aVSes03M_impro08a_M013
p3603
aVSes03M_impro08a_M016
p3604
aVSes03M_impro08a_M017
p3605
aVSes03M_impro08a_M018
p3606
aVSes03M_impro08a_M019
p3607
aVSes03M_impro08a_M020
p3608
aVSes03M_impro08a_M021
p3609
aVSes03M_impro08a_M022
p3610
aVSes03M_impro08a_M023
p3611
aVSes03M_impro08a_M024
p3612
aVSes03M_impro08a_M025
p3613
aVSes03M_impro08a_M026
p3614
aVSes03M_impro08a_M027
p3615
aVSes03M_impro08b_F005
p3616
aVSes03M_impro08b_F006
p3617
aVSes03M_impro08b_F021
p3618
aVSes03M_impro08b_F023
p3619
aVSes03M_impro08b_F024
p3620
aVSes03M_impro08b_M000
p3621
aVSes03M_impro08b_M001
p3622
aVSes03M_impro08b_M002
p3623
aVSes03M_impro08b_M003
p3624
aVSes03M_impro08b_M004
p3625
aVSes03M_impro08b_M005
p3626
aVSes03M_impro08b_M006
p3627
aVSes03M_impro08b_M007
p3628
aVSes03M_impro08b_M008
p3629
aVSes03M_impro08b_M009
p3630
aVSes03M_impro08b_M010
p3631
aVSes03M_impro08b_M011
p3632
aVSes03M_impro08b_M012
p3633
aVSes03M_impro08b_M013
p3634
aVSes03M_impro08b_M014
p3635
aVSes03M_impro08b_M015
p3636
aVSes03M_impro08b_M016
p3637
aVSes03M_impro08b_M017
p3638
aVSes03M_impro08b_M018
p3639
aVSes03M_impro08b_M019
p3640
aVSes03M_impro08b_M020
p3641
aVSes03M_impro08b_M021
p3642
aVSes03M_impro08b_M022
p3643
aVSes03M_script01_1_F000
p3644
aVSes03M_script01_1_F004
p3645
aVSes03M_script01_1_F005
p3646
aVSes03M_script01_1_F008
p3647
aVSes03M_script01_1_F016
p3648
aVSes03M_script01_1_F017
p3649
aVSes03M_script01_1_F020
p3650
aVSes03M_script01_1_F021
p3651
aVSes03M_script01_1_F028
p3652
aVSes03M_script01_1_F030
p3653
aVSes03M_script01_1_F038
p3654
aVSes03M_script01_1_F040
p3655
aVSes03M_script01_1_F043
p3656
aVSes03M_script01_1_F045
p3657
aVSes03M_script01_1_F046
p3658
aVSes03M_script01_1_M000
p3659
aVSes03M_script01_1_M001
p3660
aVSes03M_script01_1_M002
p3661
aVSes03M_script01_1_M003
p3662
aVSes03M_script01_1_M004
p3663
aVSes03M_script01_1_M005
p3664
aVSes03M_script01_1_M006
p3665
aVSes03M_script01_1_M007
p3666
aVSes03M_script01_1_M009
p3667
aVSes03M_script01_1_M011
p3668
aVSes03M_script01_1_M012
p3669
aVSes03M_script01_1_M017
p3670
aVSes03M_script01_1_M019
p3671
aVSes03M_script01_1_M021
p3672
aVSes03M_script01_1_M022
p3673
aVSes03M_script01_1_M027
p3674
aVSes03M_script01_1_M028
p3675
aVSes03M_script01_1_M029
p3676
aVSes03M_script01_1_M030
p3677
aVSes03M_script01_1_M031
p3678
aVSes03M_script01_1_M036
p3679
aVSes03M_script01_1_M037
p3680
aVSes03M_script01_1_M038
p3681
aVSes03M_script01_1_M039
p3682
aVSes03M_script01_1_M040
p3683
aVSes03M_script01_1_M041
p3684
aVSes03M_script01_1_M043
p3685
aVSes03M_script01_1_M045
p3686
aVSes03M_script01_1_M046
p3687
aVSes03M_script01_1_M047
p3688
aVSes03M_script01_2_F000
p3689
aVSes03M_script01_2_F001
p3690
aVSes03M_script01_2_F006
p3691
aVSes03M_script01_2_F009
p3692
aVSes03M_script01_2_F010
p3693
aVSes03M_script01_2_F011
p3694
aVSes03M_script01_2_F012
p3695
aVSes03M_script01_2_F015
p3696
aVSes03M_script01_2_F017
p3697
aVSes03M_script01_2_F019
p3698
aVSes03M_script01_2_M001
p3699
aVSes03M_script01_2_M004
p3700
aVSes03M_script01_2_M005
p3701
aVSes03M_script01_2_M008
p3702
aVSes03M_script01_2_M014
p3703
aVSes03M_script01_2_M015
p3704
aVSes03M_script01_2_M016
p3705
aVSes03M_script01_2_M017
p3706
aVSes03M_script01_3_F004
p3707
aVSes03M_script01_3_F006
p3708
aVSes03M_script01_3_F007
p3709
aVSes03M_script01_3_F008
p3710
aVSes03M_script01_3_F029
p3711
aVSes03M_script01_3_F030
p3712
aVSes03M_script01_3_F031
p3713
aVSes03M_script01_3_F033
p3714
aVSes03M_script01_3_M001
p3715
aVSes03M_script01_3_M004
p3716
aVSes03M_script01_3_M019
p3717
aVSes03M_script01_3_M023
p3718
aVSes03M_script01_3_M027
p3719
aVSes03M_script01_3_M028
p3720
aVSes03M_script01_3_M029
p3721
aVSes03M_script01_3_M030
p3722
aVSes03M_script01_3_M031
p3723
aVSes03M_script01_3_M032
p3724
aVSes03M_script01_3_M033
p3725
aVSes03M_script01_3_M034
p3726
aVSes03M_script01_3_M035
p3727
aVSes03M_script01_3_M036
p3728
aVSes03M_script01_3_M037
p3729
aVSes03M_script01_3_M038
p3730
aVSes03M_script01_3_M039
p3731
aVSes03M_script01_3_M040
p3732
aVSes03M_script01_3_M041
p3733
aVSes03M_script01_3_M042
p3734
aVSes03M_script02_1_F005
p3735
aVSes03M_script02_1_F016
p3736
aVSes03M_script02_1_M000
p3737
aVSes03M_script02_1_M001
p3738
aVSes03M_script02_1_M002
p3739
aVSes03M_script02_1_M003
p3740
aVSes03M_script02_1_M004
p3741
aVSes03M_script02_1_M005
p3742
aVSes03M_script02_1_M014
p3743
aVSes03M_script02_1_M015
p3744
aVSes03M_script02_1_M016
p3745
aVSes03M_script02_1_M017
p3746
aVSes03M_script02_1_M023
p3747
aVSes03M_script02_1_M024
p3748
aVSes03M_script02_1_M025
p3749
aVSes03M_script02_1_M026
p3750
aVSes03M_script02_1_M027
p3751
aVSes03M_script02_1_M034
p3752
aVSes03M_script02_1_M035
p3753
aVSes03M_script02_1_M036
p3754
aVSes03M_script02_1_M037
p3755
aVSes03M_script02_1_M038
p3756
aVSes03M_script02_1_M039
p3757
aVSes03M_script02_1_M040
p3758
aVSes03M_script02_1_M041
p3759
aVSes03M_script02_1_M042
p3760
aVSes03M_script02_1_M043
p3761
aVSes03M_script02_2_F000
p3762
aVSes03M_script02_2_F001
p3763
aVSes03M_script02_2_F002
p3764
aVSes03M_script02_2_F003
p3765
aVSes03M_script02_2_F004
p3766
aVSes03M_script02_2_F009
p3767
aVSes03M_script02_2_F011
p3768
aVSes03M_script02_2_F013
p3769
aVSes03M_script02_2_F016
p3770
aVSes03M_script02_2_F018
p3771
aVSes03M_script02_2_F023
p3772
aVSes03M_script02_2_F024
p3773
aVSes03M_script02_2_F025
p3774
aVSes03M_script02_2_F031
p3775
aVSes03M_script02_2_F033
p3776
aVSes03M_script02_2_F034
p3777
aVSes03M_script02_2_F035
p3778
aVSes03M_script02_2_F036
p3779
aVSes03M_script02_2_F037
p3780
aVSes03M_script02_2_F038
p3781
aVSes03M_script02_2_F040
p3782
aVSes03M_script02_2_F041
p3783
aVSes03M_script02_2_M000
p3784
aVSes03M_script02_2_M014
p3785
aVSes03M_script02_2_M017
p3786
aVSes03M_script02_2_M019
p3787
aVSes03M_script02_2_M020
p3788
aVSes03M_script02_2_M021
p3789
aVSes03M_script02_2_M022
p3790
aVSes03M_script02_2_M028
p3791
aVSes03M_script02_2_M029
p3792
aVSes03M_script02_2_M030
p3793
aVSes03M_script02_2_M031
p3794
aVSes03M_script02_2_M032
p3795
aVSes03M_script02_2_M033
p3796
aVSes03M_script02_2_M036
p3797
aVSes03M_script02_2_M037
p3798
aVSes03M_script03_1_F003
p3799
aVSes03M_script03_1_F004
p3800
aVSes03M_script03_1_F005
p3801
aVSes03M_script03_1_F006
p3802
aVSes03M_script03_1_F018
p3803
aVSes03M_script03_1_M004
p3804
aVSes03M_script03_1_M006
p3805
aVSes03M_script03_1_M035
p3806
aVSes03M_script03_2_F000
p3807
aVSes03M_script03_2_F001
p3808
aVSes03M_script03_2_F003
p3809
aVSes03M_script03_2_F004
p3810
aVSes03M_script03_2_F006
p3811
aVSes03M_script03_2_F010
p3812
aVSes03M_script03_2_F011
p3813
aVSes03M_script03_2_F012
p3814
aVSes03M_script03_2_F014
p3815
aVSes03M_script03_2_F016
p3816
aVSes03M_script03_2_F017
p3817
aVSes03M_script03_2_F024
p3818
aVSes03M_script03_2_F025
p3819
aVSes03M_script03_2_F028
p3820
aVSes03M_script03_2_F029
p3821
aVSes03M_script03_2_F030
p3822
aVSes03M_script03_2_F031
p3823
aVSes03M_script03_2_F032
p3824
aVSes03M_script03_2_F033
p3825
aVSes03M_script03_2_F036
p3826
aVSes03M_script03_2_F038
p3827
aVSes03M_script03_2_F039
p3828
aVSes03M_script03_2_F040
p3829
aVSes03M_script03_2_F041
p3830
aVSes03M_script03_2_F042
p3831
aVSes03M_script03_2_F043
p3832
aVSes03M_script03_2_F044
p3833
aVSes03M_script03_2_F045
p3834
aVSes03M_script03_2_M000
p3835
aVSes03M_script03_2_M003
p3836
aVSes03M_script03_2_M004
p3837
aVSes03M_script03_2_M005
p3838
aVSes03M_script03_2_M006
p3839
aVSes03M_script03_2_M007
p3840
aVSes03M_script03_2_M008
p3841
aVSes03M_script03_2_M009
p3842
aVSes03M_script03_2_M010
p3843
aVSes03M_script03_2_M011
p3844
aVSes03M_script03_2_M012
p3845
aVSes03M_script03_2_M014
p3846
aVSes03M_script03_2_M019
p3847
aVSes03M_script03_2_M020
p3848
aVSes03M_script03_2_M021
p3849
aVSes03M_script03_2_M029
p3850
aVSes03M_script03_2_M030
p3851
aVSes03M_script03_2_M031
p3852
aVSes03M_script03_2_M032
p3853
aVSes03M_script03_2_M033
p3854
aVSes03M_script03_2_M034
p3855
aVSes03M_script03_2_M038
p3856
aVSes03M_script03_2_M039
p3857
aVSes03M_script03_2_M040
p3858
aVSes03M_script03_2_M041
p3859
aVSes03M_script03_2_M042
p3860
aVSes03M_script03_2_M043
p3861
aVSes03M_script03_2_M044
p3862
aVSes03M_script03_2_M045
p3863
aVSes03M_script03_2_M046
p3864
aVSes04F_impro01_F004
p3865
aVSes04F_impro01_F008
p3866
aVSes04F_impro01_F009
p3867
aVSes04F_impro01_F010
p3868
aVSes04F_impro01_F012
p3869
aVSes04F_impro01_F014
p3870
aVSes04F_impro01_F016
p3871
aVSes04F_impro01_F019
p3872
aVSes04F_impro01_F021
p3873
aVSes04F_impro01_F022
p3874
aVSes04F_impro01_M005
p3875
aVSes04F_impro01_M008
p3876
aVSes04F_impro01_M011
p3877
aVSes04F_impro01_M014
p3878
aVSes04F_impro01_M021
p3879
aVSes04F_impro01_M023
p3880
aVSes04F_impro01_M024
p3881
aVSes04F_impro02_F000
p3882
aVSes04F_impro02_F001
p3883
aVSes04F_impro02_F002
p3884
aVSes04F_impro02_F003
p3885
aVSes04F_impro02_F005
p3886
aVSes04F_impro02_F006
p3887
aVSes04F_impro02_F007
p3888
aVSes04F_impro02_F009
p3889
aVSes04F_impro02_F011
p3890
aVSes04F_impro02_F012
p3891
aVSes04F_impro02_F017
p3892
aVSes04F_impro02_F018
p3893
aVSes04F_impro02_F022
p3894
aVSes04F_impro02_F023
p3895
aVSes04F_impro02_F024
p3896
aVSes04F_impro02_M000
p3897
aVSes04F_impro02_M001
p3898
aVSes04F_impro02_M004
p3899
aVSes04F_impro02_M012
p3900
aVSes04F_impro02_M018
p3901
aVSes04F_impro02_M020
p3902
aVSes04F_impro02_M021
p3903
aVSes04F_impro02_M024
p3904
aVSes04F_impro02_M025
p3905
aVSes04F_impro02_M026
p3906
aVSes04F_impro03_F000
p3907
aVSes04F_impro03_F001
p3908
aVSes04F_impro03_F002
p3909
aVSes04F_impro03_F003
p3910
aVSes04F_impro03_F004
p3911
aVSes04F_impro03_F005
p3912
aVSes04F_impro03_F006
p3913
aVSes04F_impro03_F007
p3914
aVSes04F_impro03_F009
p3915
aVSes04F_impro03_F011
p3916
aVSes04F_impro03_F013
p3917
aVSes04F_impro03_F014
p3918
aVSes04F_impro03_F015
p3919
aVSes04F_impro03_F016
p3920
aVSes04F_impro03_F017
p3921
aVSes04F_impro03_F018
p3922
aVSes04F_impro03_F034
p3923
aVSes04F_impro03_F036
p3924
aVSes04F_impro03_F038
p3925
aVSes04F_impro03_F040
p3926
aVSes04F_impro03_F041
p3927
aVSes04F_impro03_F042
p3928
aVSes04F_impro03_F043
p3929
aVSes04F_impro03_F044
p3930
aVSes04F_impro03_F045
p3931
aVSes04F_impro03_F047
p3932
aVSes04F_impro03_F048
p3933
aVSes04F_impro03_F050
p3934
aVSes04F_impro03_F051
p3935
aVSes04F_impro03_F052
p3936
aVSes04F_impro03_M000
p3937
aVSes04F_impro03_M001
p3938
aVSes04F_impro03_M003
p3939
aVSes04F_impro03_M004
p3940
aVSes04F_impro03_M005
p3941
aVSes04F_impro03_M014
p3942
aVSes04F_impro03_M018
p3943
aVSes04F_impro03_M019
p3944
aVSes04F_impro03_M020
p3945
aVSes04F_impro03_M021
p3946
aVSes04F_impro03_M027
p3947
aVSes04F_impro03_M028
p3948
aVSes04F_impro03_M029
p3949
aVSes04F_impro03_M030
p3950
aVSes04F_impro03_M031
p3951
aVSes04F_impro03_M032
p3952
aVSes04F_impro03_M033
p3953
aVSes04F_impro03_M034
p3954
aVSes04F_impro03_M035
p3955
aVSes04F_impro03_M036
p3956
aVSes04F_impro03_M037
p3957
aVSes04F_impro03_M038
p3958
aVSes04F_impro03_M039
p3959
aVSes04F_impro03_M040
p3960
aVSes04F_impro03_M041
p3961
aVSes04F_impro03_M042
p3962
aVSes04F_impro03_M043
p3963
aVSes04F_impro03_M047
p3964
aVSes04F_impro04_F000
p3965
aVSes04F_impro04_F005
p3966
aVSes04F_impro04_F006
p3967
aVSes04F_impro04_F008
p3968
aVSes04F_impro04_F011
p3969
aVSes04F_impro04_F013
p3970
aVSes04F_impro04_F014
p3971
aVSes04F_impro04_F015
p3972
aVSes04F_impro04_F016
p3973
aVSes04F_impro04_F017
p3974
aVSes04F_impro04_F018
p3975
aVSes04F_impro04_F025
p3976
aVSes04F_impro04_F030
p3977
aVSes04F_impro04_F031
p3978
aVSes04F_impro04_M001
p3979
aVSes04F_impro04_M002
p3980
aVSes04F_impro04_M003
p3981
aVSes04F_impro04_M004
p3982
aVSes04F_impro04_M005
p3983
aVSes04F_impro04_M006
p3984
aVSes04F_impro04_M007
p3985
aVSes04F_impro04_M008
p3986
aVSes04F_impro04_M009
p3987
aVSes04F_impro04_M013
p3988
aVSes04F_impro04_M014
p3989
aVSes04F_impro04_M015
p3990
aVSes04F_impro04_M016
p3991
aVSes04F_impro04_M017
p3992
aVSes04F_impro04_M018
p3993
aVSes04F_impro04_M019
p3994
aVSes04F_impro04_M020
p3995
aVSes04F_impro04_M021
p3996
aVSes04F_impro04_M022
p3997
aVSes04F_impro04_M023
p3998
aVSes04F_impro04_M026
p3999
aVSes04F_impro04_M028
p4000
aVSes04F_impro04_M030
p4001
aVSes04F_impro04_M031
p4002
aVSes04F_impro04_M033
p4003
aVSes04F_impro05_F004
p4004
aVSes04F_impro05_F005
p4005
aVSes04F_impro05_F006
p4006
aVSes04F_impro05_F008
p4007
aVSes04F_impro05_F009
p4008
aVSes04F_impro05_F010
p4009
aVSes04F_impro05_F011
p4010
aVSes04F_impro05_F012
p4011
aVSes04F_impro05_F013
p4012
aVSes04F_impro05_F014
p4013
aVSes04F_impro05_F015
p4014
aVSes04F_impro05_F016
p4015
aVSes04F_impro05_F017
p4016
aVSes04F_impro05_F018
p4017
aVSes04F_impro05_F019
p4018
aVSes04F_impro06_F000
p4019
aVSes04F_impro06_F001
p4020
aVSes04F_impro06_F002
p4021
aVSes04F_impro06_F003
p4022
aVSes04F_impro06_F004
p4023
aVSes04F_impro06_F005
p4024
aVSes04F_impro06_F006
p4025
aVSes04F_impro06_F007
p4026
aVSes04F_impro06_F010
p4027
aVSes04F_impro06_M000
p4028
aVSes04F_impro06_M001
p4029
aVSes04F_impro06_M002
p4030
aVSes04F_impro06_M003
p4031
aVSes04F_impro06_M004
p4032
aVSes04F_impro06_M005
p4033
aVSes04F_impro06_M006
p4034
aVSes04F_impro06_M007
p4035
aVSes04F_impro06_M008
p4036
aVSes04F_impro06_M009
p4037
aVSes04F_impro06_M010
p4038
aVSes04F_impro06_M011
p4039
aVSes04F_impro06_M012
p4040
aVSes04F_impro06_M013
p4041
aVSes04F_impro06_M014
p4042
aVSes04F_impro07_F000
p4043
aVSes04F_impro07_F001
p4044
aVSes04F_impro07_F002
p4045
aVSes04F_impro07_F003
p4046
aVSes04F_impro07_F004
p4047
aVSes04F_impro07_F005
p4048
aVSes04F_impro07_F006
p4049
aVSes04F_impro07_F007
p4050
aVSes04F_impro07_F008
p4051
aVSes04F_impro07_F009
p4052
aVSes04F_impro07_F010
p4053
aVSes04F_impro07_F011
p4054
aVSes04F_impro07_F012
p4055
aVSes04F_impro07_F013
p4056
aVSes04F_impro07_F014
p4057
aVSes04F_impro07_F015
p4058
aVSes04F_impro07_F016
p4059
aVSes04F_impro07_F017
p4060
aVSes04F_impro07_F018
p4061
aVSes04F_impro07_F021
p4062
aVSes04F_impro07_F022
p4063
aVSes04F_impro07_F024
p4064
aVSes04F_impro07_F027
p4065
aVSes04F_impro07_F028
p4066
aVSes04F_impro07_F029
p4067
aVSes04F_impro07_F030
p4068
aVSes04F_impro07_F031
p4069
aVSes04F_impro07_F032
p4070
aVSes04F_impro07_F033
p4071
aVSes04F_impro07_F035
p4072
aVSes04F_impro07_F036
p4073
aVSes04F_impro07_F038
p4074
aVSes04F_impro07_F039
p4075
aVSes04F_impro07_F040
p4076
aVSes04F_impro07_F041
p4077
aVSes04F_impro07_F042
p4078
aVSes04F_impro07_F044
p4079
aVSes04F_impro07_F047
p4080
aVSes04F_impro07_F048
p4081
aVSes04F_impro07_F049
p4082
aVSes04F_impro07_F050
p4083
aVSes04F_impro07_F051
p4084
aVSes04F_impro07_F052
p4085
aVSes04F_impro07_F058
p4086
aVSes04F_impro07_F059
p4087
aVSes04F_impro07_F060
p4088
aVSes04F_impro07_F061
p4089
aVSes04F_impro07_F062
p4090
aVSes04F_impro07_F063
p4091
aVSes04F_impro07_F064
p4092
aVSes04F_impro07_F065
p4093
aVSes04F_impro07_F066
p4094
aVSes04F_impro07_F070
p4095
aVSes04F_impro07_F074
p4096
aVSes04F_impro07_F078
p4097
aVSes04F_impro07_F079
p4098
aVSes04F_impro07_M000
p4099
aVSes04F_impro07_M001
p4100
aVSes04F_impro07_M005
p4101
aVSes04F_impro07_M006
p4102
aVSes04F_impro07_M009
p4103
aVSes04F_impro07_M013
p4104
aVSes04F_impro07_M016
p4105
aVSes04F_impro07_M017
p4106
aVSes04F_impro07_M018
p4107
aVSes04F_impro07_M019
p4108
aVSes04F_impro07_M020
p4109
aVSes04F_impro07_M021
p4110
aVSes04F_impro07_M022
p4111
aVSes04F_impro07_M023
p4112
aVSes04F_impro07_M026
p4113
aVSes04F_impro07_M028
p4114
aVSes04F_impro07_M031
p4115
aVSes04F_impro07_M032
p4116
aVSes04F_impro07_M033
p4117
aVSes04F_impro07_M034
p4118
aVSes04F_impro07_M035
p4119
aVSes04F_impro07_M036
p4120
aVSes04F_impro07_M037
p4121
aVSes04F_impro07_M038
p4122
aVSes04F_impro07_M039
p4123
aVSes04F_impro07_M040
p4124
aVSes04F_impro07_M041
p4125
aVSes04F_impro07_M042
p4126
aVSes04F_impro07_M043
p4127
aVSes04F_impro07_M044
p4128
aVSes04F_impro07_M045
p4129
aVSes04F_impro07_M046
p4130
aVSes04F_impro07_M049
p4131
aVSes04F_impro07_M050
p4132
aVSes04F_impro07_M051
p4133
aVSes04F_impro07_M057
p4134
aVSes04F_impro07_M058
p4135
aVSes04F_impro07_M059
p4136
aVSes04F_impro07_M060
p4137
aVSes04F_impro07_M061
p4138
aVSes04F_impro07_M062
p4139
aVSes04F_impro07_M063
p4140
aVSes04F_impro07_M064
p4141
aVSes04F_impro07_M066
p4142
aVSes04F_impro07_M067
p4143
aVSes04F_impro07_M070
p4144
aVSes04F_impro07_M071
p4145
aVSes04F_impro07_M072
p4146
aVSes04F_impro07_M073
p4147
aVSes04F_impro07_M076
p4148
aVSes04F_impro07_M077
p4149
aVSes04F_impro07_M079
p4150
aVSes04F_impro07_M080
p4151
aVSes04F_impro07_M082
p4152
aVSes04F_impro08_F001
p4153
aVSes04F_impro08_F002
p4154
aVSes04F_impro08_F004
p4155
aVSes04F_impro08_F005
p4156
aVSes04F_impro08_F006
p4157
aVSes04F_impro08_F008
p4158
aVSes04F_impro08_F009
p4159
aVSes04F_impro08_F023
p4160
aVSes04F_impro08_M001
p4161
aVSes04F_impro08_M012
p4162
aVSes04F_impro08_M013
p4163
aVSes04F_impro08_M014
p4164
aVSes04F_impro08_M015
p4165
aVSes04F_impro08_M016
p4166
aVSes04F_impro08_M017
p4167
aVSes04F_impro08_M018
p4168
aVSes04F_impro08_M019
p4169
aVSes04F_impro08_M022
p4170
aVSes04F_impro08_M023
p4171
aVSes04F_impro08_M024
p4172
aVSes04F_script01_1_F004
p4173
aVSes04F_script01_1_F011
p4174
aVSes04F_script01_1_F012
p4175
aVSes04F_script01_1_F013
p4176
aVSes04F_script01_1_F014
p4177
aVSes04F_script01_1_F015
p4178
aVSes04F_script01_1_F018
p4179
aVSes04F_script01_1_F019
p4180
aVSes04F_script01_1_F022
p4181
aVSes04F_script01_1_F023
p4182
aVSes04F_script01_1_F024
p4183
aVSes04F_script01_1_F025
p4184
aVSes04F_script01_1_F029
p4185
aVSes04F_script01_1_F030
p4186
aVSes04F_script01_1_F032
p4187
aVSes04F_script01_1_F035
p4188
aVSes04F_script01_1_F036
p4189
aVSes04F_script01_1_F037
p4190
aVSes04F_script01_1_F040
p4191
aVSes04F_script01_1_F041
p4192
aVSes04F_script01_1_F042
p4193
aVSes04F_script01_1_F044
p4194
aVSes04F_script01_1_M000
p4195
aVSes04F_script01_1_M004
p4196
aVSes04F_script01_1_M005
p4197
aVSes04F_script01_1_M009
p4198
aVSes04F_script01_1_M010
p4199
aVSes04F_script01_1_M012
p4200
aVSes04F_script01_1_M013
p4201
aVSes04F_script01_1_M016
p4202
aVSes04F_script01_1_M017
p4203
aVSes04F_script01_1_M020
p4204
aVSes04F_script01_1_M021
p4205
aVSes04F_script01_1_M022
p4206
aVSes04F_script01_1_M025
p4207
aVSes04F_script01_1_M026
p4208
aVSes04F_script01_1_M028
p4209
aVSes04F_script01_1_M029
p4210
aVSes04F_script01_1_M030
p4211
aVSes04F_script01_1_M032
p4212
aVSes04F_script01_1_M034
p4213
aVSes04F_script01_1_M038
p4214
aVSes04F_script01_2_F000
p4215
aVSes04F_script01_2_F001
p4216
aVSes04F_script01_2_F005
p4217
aVSes04F_script01_2_F006
p4218
aVSes04F_script01_2_F007
p4219
aVSes04F_script01_2_F008
p4220
aVSes04F_script01_2_F009
p4221
aVSes04F_script01_2_F010
p4222
aVSes04F_script01_2_F016
p4223
aVSes04F_script01_2_M000
p4224
aVSes04F_script01_2_M001
p4225
aVSes04F_script01_2_M004
p4226
aVSes04F_script01_2_M007
p4227
aVSes04F_script01_2_M008
p4228
aVSes04F_script01_2_M017
p4229
aVSes04F_script01_3_F023
p4230
aVSes04F_script01_3_F024
p4231
aVSes04F_script01_3_M004
p4232
aVSes04F_script01_3_M008
p4233
aVSes04F_script01_3_M014
p4234
aVSes04F_script01_3_M023
p4235
aVSes04F_script01_3_M024
p4236
aVSes04F_script01_3_M026
p4237
aVSes04F_script01_3_M027
p4238
aVSes04F_script01_3_M028
p4239
aVSes04F_script01_3_M029
p4240
aVSes04F_script01_3_M030
p4241
aVSes04F_script01_3_M031
p4242
aVSes04F_script01_3_M032
p4243
aVSes04F_script01_3_M033
p4244
aVSes04F_script01_3_M034
p4245
aVSes04F_script01_3_M035
p4246
aVSes04F_script01_3_M036
p4247
aVSes04F_script01_3_M039
p4248
aVSes04F_script01_3_M040
p4249
aVSes04F_script01_3_M041
p4250
aVSes04F_script01_3_M043
p4251
aVSes04F_script01_3_M044
p4252
aVSes04F_script01_3_M045
p4253
aVSes04F_script02_1_F000
p4254
aVSes04F_script02_1_F007
p4255
aVSes04F_script02_1_F008
p4256
aVSes04F_script02_1_F012
p4257
aVSes04F_script02_1_F013
p4258
aVSes04F_script02_1_F014
p4259
aVSes04F_script02_1_F016
p4260
aVSes04F_script02_1_F017
p4261
aVSes04F_script02_1_F019
p4262
aVSes04F_script02_1_F021
p4263
aVSes04F_script02_1_F022
p4264
aVSes04F_script02_1_M002
p4265
aVSes04F_script02_1_M009
p4266
aVSes04F_script02_1_M010
p4267
aVSes04F_script02_1_M017
p4268
aVSes04F_script02_1_M021
p4269
aVSes04F_script02_1_M023
p4270
aVSes04F_script02_1_M026
p4271
aVSes04F_script02_1_M031
p4272
aVSes04F_script02_1_M032
p4273
aVSes04F_script02_1_M033
p4274
aVSes04F_script02_1_M034
p4275
aVSes04F_script02_1_M035
p4276
aVSes04F_script02_1_M036
p4277
aVSes04F_script02_1_M037
p4278
aVSes04F_script02_1_M038
p4279
aVSes04F_script02_1_M039
p4280
aVSes04F_script02_1_M040
p4281
aVSes04F_script02_2_F002
p4282
aVSes04F_script02_2_F005
p4283
aVSes04F_script02_2_F006
p4284
aVSes04F_script02_2_F007
p4285
aVSes04F_script02_2_F008
p4286
aVSes04F_script02_2_F009
p4287
aVSes04F_script02_2_F010
p4288
aVSes04F_script02_2_F011
p4289
aVSes04F_script02_2_F014
p4290
aVSes04F_script02_2_F019
p4291
aVSes04F_script02_2_F020
p4292
aVSes04F_script02_2_F021
p4293
aVSes04F_script02_2_F022
p4294
aVSes04F_script02_2_F023
p4295
aVSes04F_script02_2_F024
p4296
aVSes04F_script02_2_F025
p4297
aVSes04F_script02_2_F026
p4298
aVSes04F_script02_2_F031
p4299
aVSes04F_script02_2_F033
p4300
aVSes04F_script02_2_F034
p4301
aVSes04F_script02_2_F037
p4302
aVSes04F_script02_2_F041
p4303
aVSes04F_script02_2_M000
p4304
aVSes04F_script02_2_M019
p4305
aVSes04F_script02_2_M020
p4306
aVSes04F_script02_2_M021
p4307
aVSes04F_script02_2_M023
p4308
aVSes04F_script02_2_M040
p4309
aVSes04F_script02_2_M041
p4310
aVSes04F_script02_2_M043
p4311
aVSes04F_script02_2_M044
p4312
aVSes04F_script02_2_M046
p4313
aVSes04F_script02_2_M047
p4314
aVSes04F_script03_1_F005
p4315
aVSes04F_script03_1_F006
p4316
aVSes04F_script03_1_F007
p4317
aVSes04F_script03_1_F009
p4318
aVSes04F_script03_1_F011
p4319
aVSes04F_script03_1_F012
p4320
aVSes04F_script03_1_F014
p4321
aVSes04F_script03_1_F017
p4322
aVSes04F_script03_1_F021
p4323
aVSes04F_script03_1_F022
p4324
aVSes04F_script03_1_F023
p4325
aVSes04F_script03_1_F024
p4326
aVSes04F_script03_1_F026
p4327
aVSes04F_script03_1_F028
p4328
aVSes04F_script03_1_F029
p4329
aVSes04F_script03_1_F030
p4330
aVSes04F_script03_1_M006
p4331
aVSes04F_script03_1_M007
p4332
aVSes04F_script03_1_M008
p4333
aVSes04F_script03_1_M009
p4334
aVSes04F_script03_1_M017
p4335
aVSes04F_script03_1_M027
p4336
aVSes04F_script03_1_M028
p4337
aVSes04F_script03_1_M029
p4338
aVSes04F_script03_1_M030
p4339
aVSes04F_script03_1_M031
p4340
aVSes04F_script03_2_F005
p4341
aVSes04F_script03_2_F012
p4342
aVSes04F_script03_2_F013
p4343
aVSes04F_script03_2_F014
p4344
aVSes04F_script03_2_F019
p4345
aVSes04F_script03_2_F020
p4346
aVSes04F_script03_2_F021
p4347
aVSes04F_script03_2_F022
p4348
aVSes04F_script03_2_F023
p4349
aVSes04F_script03_2_F024
p4350
aVSes04F_script03_2_F025
p4351
aVSes04F_script03_2_F026
p4352
aVSes04F_script03_2_F027
p4353
aVSes04F_script03_2_F028
p4354
aVSes04F_script03_2_F029
p4355
aVSes04F_script03_2_F030
p4356
aVSes04F_script03_2_F031
p4357
aVSes04F_script03_2_F034
p4358
aVSes04F_script03_2_F035
p4359
aVSes04F_script03_2_F036
p4360
aVSes04F_script03_2_F037
p4361
aVSes04F_script03_2_F038
p4362
aVSes04F_script03_2_F039
p4363
aVSes04F_script03_2_F040
p4364
aVSes04F_script03_2_F041
p4365
aVSes04F_script03_2_F042
p4366
aVSes04F_script03_2_F043
p4367
aVSes04F_script03_2_F044
p4368
aVSes04F_script03_2_M000
p4369
aVSes04F_script03_2_M001
p4370
aVSes04F_script03_2_M003
p4371
aVSes04F_script03_2_M005
p4372
aVSes04F_script03_2_M006
p4373
aVSes04F_script03_2_M007
p4374
aVSes04F_script03_2_M008
p4375
aVSes04F_script03_2_M010
p4376
aVSes04F_script03_2_M014
p4377
aVSes04F_script03_2_M015
p4378
aVSes04F_script03_2_M016
p4379
aVSes04F_script03_2_M024
p4380
aVSes04F_script03_2_M027
p4381
aVSes04F_script03_2_M031
p4382
aVSes04F_script03_2_M034
p4383
aVSes04F_script03_2_M035
p4384
aVSes04F_script03_2_M037
p4385
aVSes04F_script03_2_M039
p4386
aVSes04F_script03_2_M040
p4387
aVSes04F_script03_2_M041
p4388
aVSes04F_script03_2_M042
p4389
aVSes04F_script03_2_M043
p4390
aVSes04F_script03_2_M044
p4391
aVSes04F_script03_2_M045
p4392
aVSes04M_impro01_F000
p4393
aVSes04M_impro01_F001
p4394
aVSes04M_impro01_F002
p4395
aVSes04M_impro01_F012
p4396
aVSes04M_impro01_F018
p4397
aVSes04M_impro01_F019
p4398
aVSes04M_impro01_F021
p4399
aVSes04M_impro01_M000
p4400
aVSes04M_impro01_M003
p4401
aVSes04M_impro01_M018
p4402
aVSes04M_impro01_M024
p4403
aVSes04M_impro02_F009
p4404
aVSes04M_impro02_F020
p4405
aVSes04M_impro02_F021
p4406
aVSes04M_impro02_M000
p4407
aVSes04M_impro02_M008
p4408
aVSes04M_impro03_F002
p4409
aVSes04M_impro03_F003
p4410
aVSes04M_impro03_F004
p4411
aVSes04M_impro03_F005
p4412
aVSes04M_impro03_F006
p4413
aVSes04M_impro03_F007
p4414
aVSes04M_impro03_F008
p4415
aVSes04M_impro03_F009
p4416
aVSes04M_impro03_F010
p4417
aVSes04M_impro03_F011
p4418
aVSes04M_impro03_F012
p4419
aVSes04M_impro03_F015
p4420
aVSes04M_impro03_F016
p4421
aVSes04M_impro03_F017
p4422
aVSes04M_impro03_F019
p4423
aVSes04M_impro03_F025
p4424
aVSes04M_impro03_M002
p4425
aVSes04M_impro03_M011
p4426
aVSes04M_impro03_M015
p4427
aVSes04M_impro03_M017
p4428
aVSes04M_impro03_M019
p4429
aVSes04M_impro03_M023
p4430
aVSes04M_impro03_M031
p4431
aVSes04M_impro04_F000
p4432
aVSes04M_impro04_F001
p4433
aVSes04M_impro04_F002
p4434
aVSes04M_impro04_F003
p4435
aVSes04M_impro04_F004
p4436
aVSes04M_impro04_F005
p4437
aVSes04M_impro04_F006
p4438
aVSes04M_impro04_F007
p4439
aVSes04M_impro04_F008
p4440
aVSes04M_impro04_F009
p4441
aVSes04M_impro04_F011
p4442
aVSes04M_impro04_F012
p4443
aVSes04M_impro04_F013
p4444
aVSes04M_impro04_F015
p4445
aVSes04M_impro04_F016
p4446
aVSes04M_impro04_F017
p4447
aVSes04M_impro04_M004
p4448
aVSes04M_impro04_M020
p4449
aVSes04M_impro04_M021
p4450
aVSes04M_impro04_M022
p4451
aVSes04M_impro05_F000
p4452
aVSes04M_impro05_F001
p4453
aVSes04M_impro05_F002
p4454
aVSes04M_impro05_F003
p4455
aVSes04M_impro05_F006
p4456
aVSes04M_impro05_F007
p4457
aVSes04M_impro05_F008
p4458
aVSes04M_impro05_F009
p4459
aVSes04M_impro05_F010
p4460
aVSes04M_impro05_F013
p4461
aVSes04M_impro05_F017
p4462
aVSes04M_impro05_F019
p4463
aVSes04M_impro05_F020
p4464
aVSes04M_impro05_F036
p4465
aVSes04M_impro05_F037
p4466
aVSes04M_impro05_M008
p4467
aVSes04M_impro05_M009
p4468
aVSes04M_impro05_M010
p4469
aVSes04M_impro05_M011
p4470
aVSes04M_impro05_M014
p4471
aVSes04M_impro05_M015
p4472
aVSes04M_impro05_M016
p4473
aVSes04M_impro05_M017
p4474
aVSes04M_impro05_M018
p4475
aVSes04M_impro05_M022
p4476
aVSes04M_impro05_M026
p4477
aVSes04M_impro05_M038
p4478
aVSes04M_impro05_M039
p4479
aVSes04M_impro05_M044
p4480
aVSes04M_impro05_M045
p4481
aVSes04M_impro06_F000
p4482
aVSes04M_impro06_F001
p4483
aVSes04M_impro06_F002
p4484
aVSes04M_impro06_F003
p4485
aVSes04M_impro06_F004
p4486
aVSes04M_impro06_F005
p4487
aVSes04M_impro06_F006
p4488
aVSes04M_impro06_F007
p4489
aVSes04M_impro06_F008
p4490
aVSes04M_impro06_F009
p4491
aVSes04M_impro06_F010
p4492
aVSes04M_impro06_F011
p4493
aVSes04M_impro06_F012
p4494
aVSes04M_impro06_F014
p4495
aVSes04M_impro06_F015
p4496
aVSes04M_impro06_F016
p4497
aVSes04M_impro06_F017
p4498
aVSes04M_impro06_F018
p4499
aVSes04M_impro06_F019
p4500
aVSes04M_impro06_M000
p4501
aVSes04M_impro06_M001
p4502
aVSes04M_impro06_M002
p4503
aVSes04M_impro06_M003
p4504
aVSes04M_impro06_M004
p4505
aVSes04M_impro06_M005
p4506
aVSes04M_impro06_M006
p4507
aVSes04M_impro06_M007
p4508
aVSes04M_impro06_M008
p4509
aVSes04M_impro06_M009
p4510
aVSes04M_impro06_M010
p4511
aVSes04M_impro06_M011
p4512
aVSes04M_impro06_M012
p4513
aVSes04M_impro06_M013
p4514
aVSes04M_impro06_M014
p4515
aVSes04M_impro06_M015
p4516
aVSes04M_impro06_M016
p4517
aVSes04M_impro06_M017
p4518
aVSes04M_impro06_M018
p4519
aVSes04M_impro06_M019
p4520
aVSes04M_impro06_M020
p4521
aVSes04M_impro07_F002
p4522
aVSes04M_impro07_F003
p4523
aVSes04M_impro07_F004
p4524
aVSes04M_impro07_F006
p4525
aVSes04M_impro07_F007
p4526
aVSes04M_impro07_F008
p4527
aVSes04M_impro07_F009
p4528
aVSes04M_impro07_F010
p4529
aVSes04M_impro07_F012
p4530
aVSes04M_impro07_F013
p4531
aVSes04M_impro07_F014
p4532
aVSes04M_impro07_F015
p4533
aVSes04M_impro07_F016
p4534
aVSes04M_impro07_F017
p4535
aVSes04M_impro07_F018
p4536
aVSes04M_impro07_F022
p4537
aVSes04M_impro07_F023
p4538
aVSes04M_impro07_F026
p4539
aVSes04M_impro07_F027
p4540
aVSes04M_impro07_F036
p4541
aVSes04M_impro07_F037
p4542
aVSes04M_impro07_M000
p4543
aVSes04M_impro07_M001
p4544
aVSes04M_impro07_M002
p4545
aVSes04M_impro07_M003
p4546
aVSes04M_impro07_M004
p4547
aVSes04M_impro07_M014
p4548
aVSes04M_impro07_M015
p4549
aVSes04M_impro07_M020
p4550
aVSes04M_impro07_M021
p4551
aVSes04M_impro07_M025
p4552
aVSes04M_impro07_M026
p4553
aVSes04M_impro07_M029
p4554
aVSes04M_impro07_M030
p4555
aVSes04M_impro07_M032
p4556
aVSes04M_impro07_M035
p4557
aVSes04M_impro07_M036
p4558
aVSes04M_impro07_M037
p4559
aVSes04M_impro07_M040
p4560
aVSes04M_impro07_M041
p4561
aVSes04M_impro07_M042
p4562
aVSes04M_impro07_M043
p4563
aVSes04M_impro08_F020
p4564
aVSes04M_impro08_F027
p4565
aVSes04M_impro08_F028
p4566
aVSes04M_impro08_F030
p4567
aVSes04M_impro08_M001
p4568
aVSes04M_impro08_M004
p4569
aVSes04M_impro08_M005
p4570
aVSes04M_impro08_M006
p4571
aVSes04M_impro08_M008
p4572
aVSes04M_impro08_M010
p4573
aVSes04M_impro08_M011
p4574
aVSes04M_impro08_M012
p4575
aVSes04M_impro08_M013
p4576
aVSes04M_impro08_M017
p4577
aVSes04M_impro08_M019
p4578
aVSes04M_impro08_M020
p4579
aVSes04M_impro08_M021
p4580
aVSes04M_impro08_M022
p4581
aVSes04M_impro08_M023
p4582
aVSes04M_impro08_M024
p4583
aVSes04M_impro08_M025
p4584
aVSes04M_impro08_M026
p4585
aVSes04M_impro08_M027
p4586
aVSes04M_impro08_M028
p4587
aVSes04M_script01_1_F000
p4588
aVSes04M_script01_1_F007
p4589
aVSes04M_script01_1_F011
p4590
aVSes04M_script01_1_F012
p4591
aVSes04M_script01_1_F013
p4592
aVSes04M_script01_1_F015
p4593
aVSes04M_script01_1_F017
p4594
aVSes04M_script01_1_F018
p4595
aVSes04M_script01_1_F019
p4596
aVSes04M_script01_1_F021
p4597
aVSes04M_script01_1_F022
p4598
aVSes04M_script01_1_F027
p4599
aVSes04M_script01_1_F028
p4600
aVSes04M_script01_1_F029
p4601
aVSes04M_script01_1_F032
p4602
aVSes04M_script01_1_F033
p4603
aVSes04M_script01_1_F034
p4604
aVSes04M_script01_1_F035
p4605
aVSes04M_script01_1_F036
p4606
aVSes04M_script01_1_F037
p4607
aVSes04M_script01_1_F039
p4608
aVSes04M_script01_1_F040
p4609
aVSes04M_script01_1_F041
p4610
aVSes04M_script01_1_M000
p4611
aVSes04M_script01_1_M001
p4612
aVSes04M_script01_1_M013
p4613
aVSes04M_script01_1_M014
p4614
aVSes04M_script01_1_M018
p4615
aVSes04M_script01_1_M021
p4616
aVSes04M_script01_1_M022
p4617
aVSes04M_script01_1_M026
p4618
aVSes04M_script01_1_M031
p4619
aVSes04M_script01_1_M032
p4620
aVSes04M_script01_1_M034
p4621
aVSes04M_script01_1_M037
p4622
aVSes04M_script01_1_M038
p4623
aVSes04M_script01_1_M040
p4624
aVSes04M_script01_1_M041
p4625
aVSes04M_script01_2_F000
p4626
aVSes04M_script01_2_F001
p4627
aVSes04M_script01_2_F002
p4628
aVSes04M_script01_2_F003
p4629
aVSes04M_script01_2_F004
p4630
aVSes04M_script01_2_F005
p4631
aVSes04M_script01_2_F006
p4632
aVSes04M_script01_2_F007
p4633
aVSes04M_script01_2_F008
p4634
aVSes04M_script01_2_F009
p4635
aVSes04M_script01_2_F010
p4636
aVSes04M_script01_2_F011
p4637
aVSes04M_script01_2_F012
p4638
aVSes04M_script01_2_F013
p4639
aVSes04M_script01_2_F014
p4640
aVSes04M_script01_2_F015
p4641
aVSes04M_script01_2_F016
p4642
aVSes04M_script01_2_F018
p4643
aVSes04M_script01_2_F020
p4644
aVSes04M_script01_2_M000
p4645
aVSes04M_script01_2_M005
p4646
aVSes04M_script01_2_M006
p4647
aVSes04M_script01_2_M007
p4648
aVSes04M_script01_2_M019
p4649
aVSes04M_script01_3_F022
p4650
aVSes04M_script01_3_F023
p4651
aVSes04M_script01_3_M022
p4652
aVSes04M_script01_3_M023
p4653
aVSes04M_script01_3_M024
p4654
aVSes04M_script01_3_M025
p4655
aVSes04M_script01_3_M026
p4656
aVSes04M_script01_3_M027
p4657
aVSes04M_script01_3_M028
p4658
aVSes04M_script01_3_M030
p4659
aVSes04M_script01_3_M031
p4660
aVSes04M_script01_3_M032
p4661
aVSes04M_script01_3_M033
p4662
aVSes04M_script01_3_M034
p4663
aVSes04M_script01_3_M035
p4664
aVSes04M_script02_1_F000
p4665
aVSes04M_script02_1_F002
p4666
aVSes04M_script02_1_F003
p4667
aVSes04M_script02_1_F004
p4668
aVSes04M_script02_1_F005
p4669
aVSes04M_script02_1_F007
p4670
aVSes04M_script02_1_F008
p4671
aVSes04M_script02_1_F010
p4672
aVSes04M_script02_1_F012
p4673
aVSes04M_script02_1_F013
p4674
aVSes04M_script02_1_F014
p4675
aVSes04M_script02_1_F017
p4676
aVSes04M_script02_1_F018
p4677
aVSes04M_script02_1_M001
p4678
aVSes04M_script02_1_M002
p4679
aVSes04M_script02_1_M003
p4680
aVSes04M_script02_1_M005
p4681
aVSes04M_script02_1_M008
p4682
aVSes04M_script02_1_M009
p4683
aVSes04M_script02_1_M012
p4684
aVSes04M_script02_1_M014
p4685
aVSes04M_script02_1_M015
p4686
aVSes04M_script02_1_M018
p4687
aVSes04M_script02_1_M020
p4688
aVSes04M_script02_1_M021
p4689
aVSes04M_script02_1_M022
p4690
aVSes04M_script02_1_M023
p4691
aVSes04M_script02_1_M028
p4692
aVSes04M_script02_1_M029
p4693
aVSes04M_script02_1_M030
p4694
aVSes04M_script02_1_M031
p4695
aVSes04M_script02_1_M032
p4696
aVSes04M_script02_1_M033
p4697
aVSes04M_script02_2_F000
p4698
aVSes04M_script02_2_F006
p4699
aVSes04M_script02_2_F007
p4700
aVSes04M_script02_2_F009
p4701
aVSes04M_script02_2_F013
p4702
aVSes04M_script02_2_F016
p4703
aVSes04M_script02_2_F018
p4704
aVSes04M_script02_2_F019
p4705
aVSes04M_script02_2_F020
p4706
aVSes04M_script02_2_F021
p4707
aVSes04M_script02_2_F025
p4708
aVSes04M_script02_2_F026
p4709
aVSes04M_script02_2_F027
p4710
aVSes04M_script02_2_F028
p4711
aVSes04M_script02_2_F029
p4712
aVSes04M_script02_2_F032
p4713
aVSes04M_script02_2_M000
p4714
aVSes04M_script02_2_M001
p4715
aVSes04M_script02_2_M006
p4716
aVSes04M_script02_2_M007
p4717
aVSes04M_script02_2_M020
p4718
aVSes04M_script02_2_M021
p4719
aVSes04M_script02_2_M029
p4720
aVSes04M_script02_2_M031
p4721
aVSes04M_script02_2_M034
p4722
aVSes04M_script02_2_M037
p4723
aVSes04M_script03_1_F005
p4724
aVSes04M_script03_1_F006
p4725
aVSes04M_script03_1_F007
p4726
aVSes04M_script03_1_F008
p4727
aVSes04M_script03_1_F009
p4728
aVSes04M_script03_1_F012
p4729
aVSes04M_script03_1_F013
p4730
aVSes04M_script03_1_F014
p4731
aVSes04M_script03_1_F015
p4732
aVSes04M_script03_1_F017
p4733
aVSes04M_script03_1_F018
p4734
aVSes04M_script03_1_F021
p4735
aVSes04M_script03_1_F022
p4736
aVSes04M_script03_1_F023
p4737
aVSes04M_script03_1_F024
p4738
aVSes04M_script03_1_F025
p4739
aVSes04M_script03_1_F026
p4740
aVSes04M_script03_1_F027
p4741
aVSes04M_script03_1_F028
p4742
aVSes04M_script03_1_F029
p4743
aVSes04M_script03_1_F030
p4744
aVSes04M_script03_1_M003
p4745
aVSes04M_script03_1_M004
p4746
aVSes04M_script03_1_M006
p4747
aVSes04M_script03_1_M007
p4748
aVSes04M_script03_1_M010
p4749
aVSes04M_script03_1_M012
p4750
aVSes04M_script03_1_M013
p4751
aVSes04M_script03_1_M016
p4752
aVSes04M_script03_1_M021
p4753
aVSes04M_script03_1_M025
p4754
aVSes04M_script03_1_M028
p4755
aVSes04M_script03_1_M029
p4756
aVSes04M_script03_1_M033
p4757
aVSes04M_script03_2_F000
p4758
aVSes04M_script03_2_F006
p4759
aVSes04M_script03_2_F009
p4760
aVSes04M_script03_2_F010
p4761
aVSes04M_script03_2_F014
p4762
aVSes04M_script03_2_F017
p4763
aVSes04M_script03_2_F019
p4764
aVSes04M_script03_2_F022
p4765
aVSes04M_script03_2_F023
p4766
aVSes04M_script03_2_F024
p4767
aVSes04M_script03_2_F026
p4768
aVSes04M_script03_2_F028
p4769
aVSes04M_script03_2_F029
p4770
aVSes04M_script03_2_F030
p4771
aVSes04M_script03_2_F031
p4772
aVSes04M_script03_2_F032
p4773
aVSes04M_script03_2_F033
p4774
aVSes04M_script03_2_F034
p4775
aVSes04M_script03_2_F035
p4776
aVSes04M_script03_2_F036
p4777
aVSes04M_script03_2_F037
p4778
aVSes04M_script03_2_F039
p4779
aVSes04M_script03_2_F040
p4780
aVSes04M_script03_2_F041
p4781
aVSes04M_script03_2_F042
p4782
aVSes04M_script03_2_F043
p4783
aVSes04M_script03_2_F044
p4784
aVSes04M_script03_2_F045
p4785
aVSes04M_script03_2_F046
p4786
aVSes04M_script03_2_F047
p4787
aVSes04M_script03_2_F048
p4788
aVSes04M_script03_2_F049
p4789
aVSes04M_script03_2_F050
p4790
aVSes04M_script03_2_F051
p4791
aVSes04M_script03_2_F052
p4792
aVSes04M_script03_2_M001
p4793
aVSes04M_script03_2_M008
p4794
aVSes04M_script03_2_M009
p4795
aVSes04M_script03_2_M010
p4796
aVSes04M_script03_2_M011
p4797
aVSes04M_script03_2_M012
p4798
aVSes04M_script03_2_M013
p4799
aVSes04M_script03_2_M014
p4800
aVSes04M_script03_2_M020
p4801
aVSes04M_script03_2_M021
p4802
aVSes04M_script03_2_M022
p4803
aVSes04M_script03_2_M024
p4804
aVSes04M_script03_2_M025
p4805
aVSes04M_script03_2_M026
p4806
aVSes04M_script03_2_M027
p4807
aVSes04M_script03_2_M028
p4808
aVSes04M_script03_2_M029
p4809
aVSes04M_script03_2_M030
p4810
aVSes04M_script03_2_M031
p4811
aVSes04M_script03_2_M033
p4812
aVSes04M_script03_2_M034
p4813
aVSes04M_script03_2_M035
p4814
aVSes04M_script03_2_M036
p4815
aVSes04M_script03_2_M038
p4816
aVSes04M_script03_2_M040
p4817
aVSes04M_script03_2_M041
p4818
aVSes04M_script03_2_M043
p4819
aVSes04M_script03_2_M046
p4820
aVSes04M_script03_2_M047
p4821
aVSes04M_script03_2_M048
p4822
aVSes04M_script03_2_M049
p4823
aVSes04M_script03_2_M050
p4824
aVSes04M_script03_2_M051
p4825
aVSes04M_script03_2_M052
p4826
aVSes04M_script03_2_M053
p4827
aVSes04M_script03_2_M054
p4828
aVSes04M_script03_2_M055
p4829
aVSes04M_script03_2_M056
p4830
aVSes05F_impro01_F000
p4831
aVSes05F_impro01_F008
p4832
aVSes05F_impro01_F017
p4833
aVSes05F_impro01_F018
p4834
aVSes05F_impro01_F020
p4835
aVSes05F_impro01_M000
p4836
aVSes05F_impro01_M003
p4837
aVSes05F_impro02_F001
p4838
aVSes05F_impro02_F002
p4839
aVSes05F_impro02_F004
p4840
aVSes05F_impro02_F005
p4841
aVSes05F_impro02_F008
p4842
aVSes05F_impro02_F009
p4843
aVSes05F_impro02_F010
p4844
aVSes05F_impro02_F011
p4845
aVSes05F_impro02_F012
p4846
aVSes05F_impro02_F021
p4847
aVSes05F_impro02_F023
p4848
aVSes05F_impro02_F024
p4849
aVSes05F_impro02_F027
p4850
aVSes05F_impro02_F028
p4851
aVSes05F_impro02_F029
p4852
aVSes05F_impro02_F031
p4853
aVSes05F_impro02_F032
p4854
aVSes05F_impro02_F034
p4855
aVSes05F_impro02_F035
p4856
aVSes05F_impro02_F036
p4857
aVSes05F_impro02_F037
p4858
aVSes05F_impro02_F038
p4859
aVSes05F_impro02_M000
p4860
aVSes05F_impro02_M004
p4861
aVSes05F_impro02_M005
p4862
aVSes05F_impro02_M010
p4863
aVSes05F_impro02_M014
p4864
aVSes05F_impro02_M015
p4865
aVSes05F_impro02_M024
p4866
aVSes05F_impro02_M025
p4867
aVSes05F_impro02_M026
p4868
aVSes05F_impro02_M029
p4869
aVSes05F_impro02_M031
p4870
aVSes05F_impro02_M032
p4871
aVSes05F_impro02_M033
p4872
aVSes05F_impro02_M034
p4873
aVSes05F_impro02_M035
p4874
aVSes05F_impro02_M036
p4875
aVSes05F_impro02_M041
p4876
aVSes05F_impro03_F000
p4877
aVSes05F_impro03_F001
p4878
aVSes05F_impro03_F002
p4879
aVSes05F_impro03_F003
p4880
aVSes05F_impro03_F004
p4881
aVSes05F_impro03_F005
p4882
aVSes05F_impro03_F007
p4883
aVSes05F_impro03_F008
p4884
aVSes05F_impro03_F009
p4885
aVSes05F_impro03_F011
p4886
aVSes05F_impro03_F020
p4887
aVSes05F_impro03_F037
p4888
aVSes05F_impro03_F042
p4889
aVSes05F_impro03_F043
p4890
aVSes05F_impro03_M000
p4891
aVSes05F_impro03_M001
p4892
aVSes05F_impro03_M003
p4893
aVSes05F_impro03_M005
p4894
aVSes05F_impro03_M006
p4895
aVSes05F_impro03_M007
p4896
aVSes05F_impro03_M008
p4897
aVSes05F_impro03_M009
p4898
aVSes05F_impro03_M010
p4899
aVSes05F_impro03_M011
p4900
aVSes05F_impro03_M012
p4901
aVSes05F_impro03_M013
p4902
aVSes05F_impro03_M020
p4903
aVSes05F_impro03_M027
p4904
aVSes05F_impro03_M031
p4905
aVSes05F_impro03_M032
p4906
aVSes05F_impro03_M033
p4907
aVSes05F_impro03_M035
p4908
aVSes05F_impro03_M036
p4909
aVSes05F_impro03_M037
p4910
aVSes05F_impro03_M039
p4911
aVSes05F_impro03_M043
p4912
aVSes05F_impro03_M044
p4913
aVSes05F_impro03_M045
p4914
aVSes05F_impro03_M046
p4915
aVSes05F_impro03_M050
p4916
aVSes05F_impro03_M051
p4917
aVSes05F_impro04_F000
p4918
aVSes05F_impro04_F008
p4919
aVSes05F_impro04_F015
p4920
aVSes05F_impro04_F016
p4921
aVSes05F_impro04_F017
p4922
aVSes05F_impro04_F019
p4923
aVSes05F_impro04_F022
p4924
aVSes05F_impro04_F023
p4925
aVSes05F_impro04_F038
p4926
aVSes05F_impro04_F039
p4927
aVSes05F_impro04_F040
p4928
aVSes05F_impro04_F041
p4929
aVSes05F_impro04_F042
p4930
aVSes05F_impro04_F043
p4931
aVSes05F_impro04_F044
p4932
aVSes05F_impro04_F045
p4933
aVSes05F_impro04_M000
p4934
aVSes05F_impro04_M001
p4935
aVSes05F_impro04_M003
p4936
aVSes05F_impro04_M004
p4937
aVSes05F_impro04_M005
p4938
aVSes05F_impro04_M007
p4939
aVSes05F_impro04_M008
p4940
as.